
tests/uart-test-wifi-connect.elf:     file format elf32-littlearm


Disassembly of section .text:

00008000 <__code_start__>:
    8000:	e3a00013 	mov	r0, #19, 0
    8004:	e3800080 	orr	r0, r0, #128, 0	; 0x80
    8008:	e129f000 	msr	CPSR_fc, r0
    800c:	e3a01000 	mov	r1, #0, 0
    8010:	ee071f95 	mcr	15, 0, r1, cr7, cr5, {4}
    8014:	e3a0d302 	mov	sp, #134217728	; 0x8000000
    8018:	e3a0b000 	mov	fp, #0, 0
    801c:	eb0013fc 	bl	d014 <_cstart>
    8020:	eb00145a 	bl	d190 <rpi_reboot>

00008024 <PUT32>:
    8024:	e5801000 	str	r1, [r0]
    8028:	e12fff1e 	bx	lr

0000802c <GET32>:
    802c:	e5900000 	ldr	r0, [r0]
    8030:	e12fff1e 	bx	lr

00008034 <BRANCHTO>:
    8034:	e12fff10 	bx	r0

00008038 <send_cmd>:
    8038:	e92d4800 	push	{fp, lr}
    803c:	e28db004 	add	fp, sp, #4, 0
    8040:	e24dde41 	sub	sp, sp, #1040	; 0x410
    8044:	e24dd008 	sub	sp, sp, #8, 0
    8048:	e24bce41 	sub	ip, fp, #1040	; 0x410
    804c:	e24cc004 	sub	ip, ip, #4, 0
    8050:	e24cc008 	sub	ip, ip, #8, 0
    8054:	e88c000f 	stm	ip, {r0, r1, r2, r3}
    8058:	e59b1004 	ldr	r1, [fp, #4]
    805c:	e59f00e0 	ldr	r0, [pc, #224]	; 8144 <send_cmd+0x10c>
    8060:	eb00138b 	bl	ce94 <printk>
    8064:	e24b3e41 	sub	r3, fp, #1040	; 0x410
    8068:	e2433004 	sub	r3, r3, #4, 0
    806c:	e2433008 	sub	r3, r3, #8, 0
    8070:	e59b1004 	ldr	r1, [fp, #4]
    8074:	e1a00003 	mov	r0, r3
    8078:	eb00110e 	bl	c4b8 <sw_uart_putk>
    807c:	e24b3b01 	sub	r3, fp, #1024	; 0x400
    8080:	e2433004 	sub	r3, r3, #4, 0
    8084:	e2433008 	sub	r3, r3, #8, 0
    8088:	e3a02b01 	mov	r2, #1024	; 0x400
    808c:	e3a01000 	mov	r1, #0, 0
    8090:	e1a00003 	mov	r0, r3
    8094:	eb0011d1 	bl	c7e0 <memset>
    8098:	e3a00ffa 	mov	r0, #1000	; 0x3e8
    809c:	eb001477 	bl	d280 <delay_us>
    80a0:	e24b1b01 	sub	r1, fp, #1024	; 0x400
    80a4:	e2411004 	sub	r1, r1, #4, 0
    80a8:	e2411008 	sub	r1, r1, #8, 0
    80ac:	e24b0e41 	sub	r0, fp, #1040	; 0x410
    80b0:	e2400004 	sub	r0, r0, #4, 0
    80b4:	e2400008 	sub	r0, r0, #8, 0
    80b8:	e3a03ffa 	mov	r3, #1000	; 0x3e8
    80bc:	e3a02b01 	mov	r2, #1024	; 0x400
    80c0:	eb001137 	bl	c5a4 <sw_uart_read_timeout>
    80c4:	e50b000c 	str	r0, [fp, #-12]
    80c8:	e51b300c 	ldr	r3, [fp, #-12]
    80cc:	e3530000 	cmp	r3, #0, 0
    80d0:	1a000002 	bne	80e0 <send_cmd+0xa8>
    80d4:	e59f006c 	ldr	r0, [pc, #108]	; 8148 <send_cmd+0x110>
    80d8:	eb00136d 	bl	ce94 <printk>
    80dc:	ea000015 	b	8138 <send_cmd+0x100>
    80e0:	e59f0064 	ldr	r0, [pc, #100]	; 814c <send_cmd+0x114>
    80e4:	eb00136a 	bl	ce94 <printk>
    80e8:	e3a03000 	mov	r3, #0, 0
    80ec:	e50b3008 	str	r3, [fp, #-8]
    80f0:	ea00000b 	b	8124 <send_cmd+0xec>
    80f4:	e24b3b01 	sub	r3, fp, #1024	; 0x400
    80f8:	e2433004 	sub	r3, r3, #4, 0
    80fc:	e2433008 	sub	r3, r3, #8, 0
    8100:	e51b2008 	ldr	r2, [fp, #-8]
    8104:	e0833002 	add	r3, r3, r2
    8108:	e5d33000 	ldrb	r3, [r3]
    810c:	e1a01003 	mov	r1, r3
    8110:	e59f0038 	ldr	r0, [pc, #56]	; 8150 <send_cmd+0x118>
    8114:	eb00135e 	bl	ce94 <printk>
    8118:	e51b3008 	ldr	r3, [fp, #-8]
    811c:	e2833001 	add	r3, r3, #1, 0
    8120:	e50b3008 	str	r3, [fp, #-8]
    8124:	e51b3008 	ldr	r3, [fp, #-8]
    8128:	e3530b01 	cmp	r3, #1024	; 0x400
    812c:	bafffff0 	blt	80f4 <send_cmd+0xbc>
    8130:	e59f001c 	ldr	r0, [pc, #28]	; 8154 <send_cmd+0x11c>
    8134:	eb001356 	bl	ce94 <printk>
    8138:	e320f000 	nop	{0}
    813c:	e24bd004 	sub	sp, fp, #4, 0
    8140:	e8bd8800 	pop	{fp, pc}
    8144:	0000e0b8 	.word	0x0000e0b8
    8148:	0000e0d0 	.word	0x0000e0d0
    814c:	0000e0e8 	.word	0x0000e0e8
    8150:	0000e0f8 	.word	0x0000e0f8
    8154:	0000e0fc 	.word	0x0000e0fc

00008158 <notmain>:
    8158:	e92d4800 	push	{fp, lr}
    815c:	e28db004 	add	fp, sp, #4, 0
    8160:	e24dd020 	sub	sp, sp, #32, 0
    8164:	e24b001c 	sub	r0, fp, #28, 0
    8168:	e3a03008 	mov	r3, #8, 0
    816c:	e58d3004 	str	r3, [sp, #4]
    8170:	e59f304c 	ldr	r3, [pc, #76]	; 81c4 <notmain+0x6c>
    8174:	e58d3000 	str	r3, [sp]
    8178:	e59f3048 	ldr	r3, [pc, #72]	; 81c8 <notmain+0x70>
    817c:	e3a02015 	mov	r2, #21, 0
    8180:	e3a01014 	mov	r1, #20, 0
    8184:	eb00109a 	bl	c3f4 <sw_uart_mk_helper>
    8188:	e59f303c 	ldr	r3, [pc, #60]	; 81cc <notmain+0x74>
    818c:	e50b3008 	str	r3, [fp, #-8]
    8190:	e51b3008 	ldr	r3, [fp, #-8]
    8194:	e58d3000 	str	r3, [sp]
    8198:	e24b301c 	sub	r3, fp, #28, 0
    819c:	e893000f 	ldm	r3, {r0, r1, r2, r3}
    81a0:	ebffffa4 	bl	8038 <send_cmd>
    81a4:	e59f3024 	ldr	r3, [pc, #36]	; 81d0 <notmain+0x78>
    81a8:	e50b300c 	str	r3, [fp, #-12]
    81ac:	e51b300c 	ldr	r3, [fp, #-12]
    81b0:	e58d3000 	str	r3, [sp]
    81b4:	e24b301c 	sub	r3, fp, #28, 0
    81b8:	e893000f 	ldm	r3, {r0, r1, r2, r3}
    81bc:	ebffff9d 	bl	8038 <send_cmd>
    81c0:	eb00138a 	bl	cff0 <clean_reboot>
    81c4:	000017bc 	.word	0x000017bc
    81c8:	0001c200 	.word	0x0001c200
    81cc:	0000e100 	.word	0x0000e100
    81d0:	0000e10c 	.word	0x0000e10c

000081d4 <nrf_get_addr_nbytes>:
    81d4:	e52db004 	push	{fp}		; (str fp, [sp, #-4]!)
    81d8:	e28db000 	add	fp, sp, #0, 0
    81dc:	e24dd00c 	sub	sp, sp, #12, 0
    81e0:	e50b0008 	str	r0, [fp, #-8]
    81e4:	e3a03003 	mov	r3, #3, 0
    81e8:	e1a00003 	mov	r0, r3
    81ec:	e28bd000 	add	sp, fp, #0, 0
    81f0:	e49db004 	pop	{fp}		; (ldr fp, [sp], #4)
    81f4:	e12fff1e 	bx	lr

000081f8 <bit_clr>:
    81f8:	e92d4800 	push	{fp, lr}
    81fc:	e28db004 	add	fp, sp, #4, 0
    8200:	e24dd010 	sub	sp, sp, #16, 0
    8204:	e50b0008 	str	r0, [fp, #-8]
    8208:	e50b100c 	str	r1, [fp, #-12]
    820c:	e51b300c 	ldr	r3, [fp, #-12]
    8210:	e353001f 	cmp	r3, #31, 0
    8214:	9a000007 	bls	8238 <bit_clr+0x40>
    8218:	e59f3040 	ldr	r3, [pc, #64]	; 8260 <bit_clr+0x68>
    821c:	e58d3000 	str	r3, [sp]
    8220:	e3a03008 	mov	r3, #8, 0
    8224:	e59f2038 	ldr	r2, [pc, #56]	; 8264 <bit_clr+0x6c>
    8228:	e59f1038 	ldr	r1, [pc, #56]	; 8268 <bit_clr+0x70>
    822c:	e59f0038 	ldr	r0, [pc, #56]	; 826c <bit_clr+0x74>
    8230:	eb001317 	bl	ce94 <printk>
    8234:	eb00136d 	bl	cff0 <clean_reboot>
    8238:	e3a02001 	mov	r2, #1, 0
    823c:	e51b300c 	ldr	r3, [fp, #-12]
    8240:	e1a03312 	lsl	r3, r2, r3
    8244:	e1e03003 	mvn	r3, r3
    8248:	e1a02003 	mov	r2, r3
    824c:	e51b3008 	ldr	r3, [fp, #-8]
    8250:	e0033002 	and	r3, r3, r2
    8254:	e1a00003 	mov	r0, r3
    8258:	e24bd004 	sub	sp, fp, #4, 0
    825c:	e8bd8800 	pop	{fp, pc}
    8260:	0000e18c 	.word	0x0000e18c
    8264:	0000e7ec 	.word	0x0000e7ec
    8268:	0000e11c 	.word	0x0000e11c
    826c:	0000e15c 	.word	0x0000e15c

00008270 <bit_set>:
    8270:	e92d4800 	push	{fp, lr}
    8274:	e28db004 	add	fp, sp, #4, 0
    8278:	e24dd010 	sub	sp, sp, #16, 0
    827c:	e50b0008 	str	r0, [fp, #-8]
    8280:	e50b100c 	str	r1, [fp, #-12]
    8284:	e51b300c 	ldr	r3, [fp, #-12]
    8288:	e353001f 	cmp	r3, #31, 0
    828c:	9a000007 	bls	82b0 <bit_set+0x40>
    8290:	e59f303c 	ldr	r3, [pc, #60]	; 82d4 <bit_set+0x64>
    8294:	e58d3000 	str	r3, [sp]
    8298:	e3a0300f 	mov	r3, #15, 0
    829c:	e59f2034 	ldr	r2, [pc, #52]	; 82d8 <bit_set+0x68>
    82a0:	e59f1034 	ldr	r1, [pc, #52]	; 82dc <bit_set+0x6c>
    82a4:	e59f0034 	ldr	r0, [pc, #52]	; 82e0 <bit_set+0x70>
    82a8:	eb0012f9 	bl	ce94 <printk>
    82ac:	eb00134f 	bl	cff0 <clean_reboot>
    82b0:	e3a02001 	mov	r2, #1, 0
    82b4:	e51b300c 	ldr	r3, [fp, #-12]
    82b8:	e1a03312 	lsl	r3, r2, r3
    82bc:	e1a02003 	mov	r2, r3
    82c0:	e51b3008 	ldr	r3, [fp, #-8]
    82c4:	e1823003 	orr	r3, r2, r3
    82c8:	e1a00003 	mov	r0, r3
    82cc:	e24bd004 	sub	sp, fp, #4, 0
    82d0:	e8bd8800 	pop	{fp, pc}
    82d4:	0000e18c 	.word	0x0000e18c
    82d8:	0000e800 	.word	0x0000e800
    82dc:	0000e11c 	.word	0x0000e11c
    82e0:	0000e15c 	.word	0x0000e15c

000082e4 <bit_is_on>:
    82e4:	e92d4800 	push	{fp, lr}
    82e8:	e28db004 	add	fp, sp, #4, 0
    82ec:	e24dd010 	sub	sp, sp, #16, 0
    82f0:	e50b0008 	str	r0, [fp, #-8]
    82f4:	e50b100c 	str	r1, [fp, #-12]
    82f8:	e51b300c 	ldr	r3, [fp, #-12]
    82fc:	e353001f 	cmp	r3, #31, 0
    8300:	9a000007 	bls	8324 <bit_is_on+0x40>
    8304:	e59f3034 	ldr	r3, [pc, #52]	; 8340 <bit_is_on+0x5c>
    8308:	e58d3000 	str	r3, [sp]
    830c:	e3a0301f 	mov	r3, #31, 0
    8310:	e59f202c 	ldr	r2, [pc, #44]	; 8344 <bit_is_on+0x60>
    8314:	e59f102c 	ldr	r1, [pc, #44]	; 8348 <bit_is_on+0x64>
    8318:	e59f002c 	ldr	r0, [pc, #44]	; 834c <bit_is_on+0x68>
    831c:	eb0012dc 	bl	ce94 <printk>
    8320:	eb001332 	bl	cff0 <clean_reboot>
    8324:	e51b2008 	ldr	r2, [fp, #-8]
    8328:	e51b300c 	ldr	r3, [fp, #-12]
    832c:	e1a03332 	lsr	r3, r2, r3
    8330:	e2033001 	and	r3, r3, #1, 0
    8334:	e1a00003 	mov	r0, r3
    8338:	e24bd004 	sub	sp, fp, #4, 0
    833c:	e8bd8800 	pop	{fp, pc}
    8340:	0000e18c 	.word	0x0000e18c
    8344:	0000e818 	.word	0x0000e818
    8348:	0000e11c 	.word	0x0000e11c
    834c:	0000e15c 	.word	0x0000e15c

00008350 <bits_mask>:
    8350:	e92d4800 	push	{fp, lr}
    8354:	e28db004 	add	fp, sp, #4, 0
    8358:	e24dd010 	sub	sp, sp, #16, 0
    835c:	e50b0008 	str	r0, [fp, #-8]
    8360:	e51b3008 	ldr	r3, [fp, #-8]
    8364:	e3530020 	cmp	r3, #32, 0
    8368:	1a000001 	bne	8374 <bits_mask+0x24>
    836c:	e3e03000 	mvn	r3, #0, 0
    8370:	ea00000e 	b	83b0 <bits_mask+0x60>
    8374:	e51b3008 	ldr	r3, [fp, #-8]
    8378:	e353001f 	cmp	r3, #31, 0
    837c:	9a000007 	bls	83a0 <bits_mask+0x50>
    8380:	e59f3034 	ldr	r3, [pc, #52]	; 83bc <bits_mask+0x6c>
    8384:	e58d3000 	str	r3, [sp]
    8388:	e3a03033 	mov	r3, #51, 0	; 0x33
    838c:	e59f202c 	ldr	r2, [pc, #44]	; 83c0 <bits_mask+0x70>
    8390:	e59f102c 	ldr	r1, [pc, #44]	; 83c4 <bits_mask+0x74>
    8394:	e59f002c 	ldr	r0, [pc, #44]	; 83c8 <bits_mask+0x78>
    8398:	eb0012bd 	bl	ce94 <printk>
    839c:	eb001313 	bl	cff0 <clean_reboot>
    83a0:	e3a02001 	mov	r2, #1, 0
    83a4:	e51b3008 	ldr	r3, [fp, #-8]
    83a8:	e1a03312 	lsl	r3, r2, r3
    83ac:	e2433001 	sub	r3, r3, #1, 0
    83b0:	e1a00003 	mov	r0, r3
    83b4:	e24bd004 	sub	sp, fp, #4, 0
    83b8:	e8bd8800 	pop	{fp, pc}
    83bc:	0000e194 	.word	0x0000e194
    83c0:	0000e85c 	.word	0x0000e85c
    83c4:	0000e11c 	.word	0x0000e11c
    83c8:	0000e15c 	.word	0x0000e15c

000083cc <bits_get>:
    83cc:	e92d4810 	push	{r4, fp, lr}
    83d0:	e28db008 	add	fp, sp, #8, 0
    83d4:	e24dd01c 	sub	sp, sp, #28, 0
    83d8:	e50b0010 	str	r0, [fp, #-16]
    83dc:	e50b1014 	str	r1, [fp, #-20]	; 0xffffffec
    83e0:	e50b2018 	str	r2, [fp, #-24]	; 0xffffffe8
    83e4:	e51b2014 	ldr	r2, [fp, #-20]	; 0xffffffec
    83e8:	e51b3018 	ldr	r3, [fp, #-24]	; 0xffffffe8
    83ec:	e1520003 	cmp	r2, r3
    83f0:	9a000007 	bls	8414 <bits_get+0x48>
    83f4:	e59f307c 	ldr	r3, [pc, #124]	; 8478 <bits_get+0xac>
    83f8:	e58d3000 	str	r3, [sp]
    83fc:	e3a0303a 	mov	r3, #58, 0	; 0x3a
    8400:	e59f2074 	ldr	r2, [pc, #116]	; 847c <bits_get+0xb0>
    8404:	e59f1074 	ldr	r1, [pc, #116]	; 8480 <bits_get+0xb4>
    8408:	e59f0074 	ldr	r0, [pc, #116]	; 8484 <bits_get+0xb8>
    840c:	eb0012a0 	bl	ce94 <printk>
    8410:	eb0012f6 	bl	cff0 <clean_reboot>
    8414:	e51b3018 	ldr	r3, [fp, #-24]	; 0xffffffe8
    8418:	e353001f 	cmp	r3, #31, 0
    841c:	9a000007 	bls	8440 <bits_get+0x74>
    8420:	e59f3060 	ldr	r3, [pc, #96]	; 8488 <bits_get+0xbc>
    8424:	e58d3000 	str	r3, [sp]
    8428:	e3a0303b 	mov	r3, #59, 0	; 0x3b
    842c:	e59f2048 	ldr	r2, [pc, #72]	; 847c <bits_get+0xb0>
    8430:	e59f1048 	ldr	r1, [pc, #72]	; 8480 <bits_get+0xb4>
    8434:	e59f0048 	ldr	r0, [pc, #72]	; 8484 <bits_get+0xb8>
    8438:	eb001295 	bl	ce94 <printk>
    843c:	eb0012eb 	bl	cff0 <clean_reboot>
    8440:	e51b2010 	ldr	r2, [fp, #-16]
    8444:	e51b3014 	ldr	r3, [fp, #-20]	; 0xffffffec
    8448:	e1a04332 	lsr	r4, r2, r3
    844c:	e51b2018 	ldr	r2, [fp, #-24]	; 0xffffffe8
    8450:	e51b3014 	ldr	r3, [fp, #-20]	; 0xffffffec
    8454:	e0423003 	sub	r3, r2, r3
    8458:	e2833001 	add	r3, r3, #1, 0
    845c:	e1a00003 	mov	r0, r3
    8460:	ebffffba 	bl	8350 <bits_mask>
    8464:	e1a03000 	mov	r3, r0
    8468:	e0033004 	and	r3, r3, r4
    846c:	e1a00003 	mov	r0, r3
    8470:	e24bd008 	sub	sp, fp, #8, 0
    8474:	e8bd8810 	pop	{r4, fp, pc}
    8478:	0000e1ac 	.word	0x0000e1ac
    847c:	0000e850 	.word	0x0000e850
    8480:	0000e11c 	.word	0x0000e11c
    8484:	0000e15c 	.word	0x0000e15c
    8488:	0000e1b8 	.word	0x0000e1b8

0000848c <src_loc_mk>:
    848c:	e52db004 	push	{fp}		; (str fp, [sp, #-4]!)
    8490:	e28db000 	add	fp, sp, #0, 0
    8494:	e24dd024 	sub	sp, sp, #36, 0	; 0x24
    8498:	e50b0018 	str	r0, [fp, #-24]	; 0xffffffe8
    849c:	e50b101c 	str	r1, [fp, #-28]	; 0xffffffe4
    84a0:	e50b2020 	str	r2, [fp, #-32]	; 0xffffffe0
    84a4:	e50b3024 	str	r3, [fp, #-36]	; 0xffffffdc
    84a8:	e51b3018 	ldr	r3, [fp, #-24]	; 0xffffffe8
    84ac:	e51b201c 	ldr	r2, [fp, #-28]	; 0xffffffe4
    84b0:	e5832000 	str	r2, [r3]
    84b4:	e51b3018 	ldr	r3, [fp, #-24]	; 0xffffffe8
    84b8:	e51b2020 	ldr	r2, [fp, #-32]	; 0xffffffe0
    84bc:	e5832004 	str	r2, [r3, #4]
    84c0:	e51b3018 	ldr	r3, [fp, #-24]	; 0xffffffe8
    84c4:	e51b2024 	ldr	r2, [fp, #-36]	; 0xffffffdc
    84c8:	e5832008 	str	r2, [r3, #8]
    84cc:	e51b0018 	ldr	r0, [fp, #-24]	; 0xffffffe8
    84d0:	e28bd000 	add	sp, fp, #0, 0
    84d4:	e49db004 	pop	{fp}		; (ldr fp, [sp], #4)
    84d8:	e12fff1e 	bx	lr

000084dc <nrf_rx_fifo_empty>:
    84dc:	e92d4800 	push	{fp, lr}
    84e0:	e28db004 	add	fp, sp, #4, 0
    84e4:	e24dd008 	sub	sp, sp, #8, 0
    84e8:	e50b0008 	str	r0, [fp, #-8]
    84ec:	e3a02000 	mov	r2, #0, 0
    84f0:	e3a01017 	mov	r1, #23, 0
    84f4:	e51b0008 	ldr	r0, [fp, #-8]
    84f8:	eb0001bf 	bl	8bfc <nrf_bit_isset>
    84fc:	e1a03000 	mov	r3, r0
    8500:	e1a00003 	mov	r0, r3
    8504:	e24bd004 	sub	sp, fp, #4, 0
    8508:	e8bd8800 	pop	{fp, pc}

0000850c <nrf_rx_has_packet>:
    850c:	e92d4800 	push	{fp, lr}
    8510:	e28db004 	add	fp, sp, #4, 0
    8514:	e24dd008 	sub	sp, sp, #8, 0
    8518:	e50b0008 	str	r0, [fp, #-8]
    851c:	e51b0008 	ldr	r0, [fp, #-8]
    8520:	ebffffed 	bl	84dc <nrf_rx_fifo_empty>
    8524:	e1a03000 	mov	r3, r0
    8528:	e3530000 	cmp	r3, #0, 0
    852c:	03a03001 	moveq	r3, #1, 0
    8530:	13a03000 	movne	r3, #0, 0
    8534:	e6ef3073 	uxtb	r3, r3
    8538:	e1a00003 	mov	r0, r3
    853c:	e24bd004 	sub	sp, fp, #4, 0
    8540:	e8bd8800 	pop	{fp, pc}

00008544 <nrf_set_verbose>:
    8544:	e52db004 	push	{fp}		; (str fp, [sp, #-4]!)
    8548:	e28db000 	add	fp, sp, #0, 0
    854c:	e24dd00c 	sub	sp, sp, #12, 0
    8550:	e50b0008 	str	r0, [fp, #-8]
    8554:	e51b3008 	ldr	r3, [fp, #-8]
    8558:	e59f2010 	ldr	r2, [pc, #16]	; 8570 <nrf_set_verbose+0x2c>
    855c:	e5823000 	str	r3, [r2]
    8560:	e320f000 	nop	{0}
    8564:	e28bd000 	add	sp, fp, #0, 0
    8568:	e49db004 	pop	{fp}		; (ldr fp, [sp], #4)
    856c:	e12fff1e 	bx	lr
    8570:	0000f35c 	.word	0x0000f35c

00008574 <pin_init>:
    8574:	e92d4800 	push	{fp, lr}
    8578:	e28db004 	add	fp, sp, #4, 0
    857c:	e24dd030 	sub	sp, sp, #48, 0	; 0x30
    8580:	e50b0020 	str	r0, [fp, #-32]	; 0xffffffe0
    8584:	e50b1024 	str	r1, [fp, #-36]	; 0xffffffdc
    8588:	e50b2028 	str	r2, [fp, #-40]	; 0xffffffd8
    858c:	e3a00064 	mov	r0, #100, 0	; 0x64
    8590:	eb00134c 	bl	d2c8 <delay_ms>
    8594:	e51b3028 	ldr	r3, [fp, #-40]	; 0xffffffd8
    8598:	e3530000 	cmp	r3, #0, 0
    859c:	0a000002 	beq	85ac <pin_init+0x38>
    85a0:	e51b3028 	ldr	r3, [fp, #-40]	; 0xffffffd8
    85a4:	e3530001 	cmp	r3, #1, 0
    85a8:	1a000001 	bne	85b4 <pin_init+0x40>
    85ac:	e3a03001 	mov	r3, #1, 0
    85b0:	ea000000 	b	85b8 <pin_init+0x44>
    85b4:	e3a03000 	mov	r3, #0, 0
    85b8:	e3530000 	cmp	r3, #0, 0
    85bc:	1a000007 	bne	85e0 <pin_init+0x6c>
    85c0:	e59f30ac 	ldr	r3, [pc, #172]	; 8674 <pin_init+0x100>
    85c4:	e58d3000 	str	r3, [sp]
    85c8:	e3a03011 	mov	r3, #17, 0
    85cc:	e59f20a4 	ldr	r2, [pc, #164]	; 8678 <pin_init+0x104>
    85d0:	e59f10a4 	ldr	r1, [pc, #164]	; 867c <pin_init+0x108>
    85d4:	e59f00a4 	ldr	r0, [pc, #164]	; 8680 <pin_init+0x10c>
    85d8:	eb00122d 	bl	ce94 <printk>
    85dc:	eb001283 	bl	cff0 <clean_reboot>
    85e0:	e24b301c 	sub	r3, fp, #28, 0
    85e4:	e3a02014 	mov	r2, #20, 0
    85e8:	e51b1028 	ldr	r1, [fp, #-40]	; 0xffffffd8
    85ec:	e1a00003 	mov	r0, r3
    85f0:	eb000e2c 	bl	bea8 <spi_n_init>
    85f4:	e51b301c 	ldr	r3, [fp, #-28]	; 0xffffffe4
    85f8:	e51b2028 	ldr	r2, [fp, #-40]	; 0xffffffd8
    85fc:	e1520003 	cmp	r2, r3
    8600:	0a000007 	beq	8624 <pin_init+0xb0>
    8604:	e59f3078 	ldr	r3, [pc, #120]	; 8684 <pin_init+0x110>
    8608:	e58d3000 	str	r3, [sp]
    860c:	e3a03016 	mov	r3, #22, 0
    8610:	e59f2060 	ldr	r2, [pc, #96]	; 8678 <pin_init+0x104>
    8614:	e59f1060 	ldr	r1, [pc, #96]	; 867c <pin_init+0x108>
    8618:	e59f0060 	ldr	r0, [pc, #96]	; 8680 <pin_init+0x10c>
    861c:	eb00121c 	bl	ce94 <printk>
    8620:	eb001272 	bl	cff0 <clean_reboot>
    8624:	e3a00064 	mov	r0, #100, 0	; 0x64
    8628:	eb001326 	bl	d2c8 <delay_ms>
    862c:	eb0012a9 	bl	d0d8 <dev_barrier>
    8630:	e51b0024 	ldr	r0, [fp, #-36]	; 0xffffffdc
    8634:	eb00134c 	bl	d36c <gpio_set_output>
    8638:	e51b0024 	ldr	r0, [fp, #-36]	; 0xffffffdc
    863c:	eb001440 	bl	d744 <gpio_set_pulldown>
    8640:	e51b0024 	ldr	r0, [fp, #-36]	; 0xffffffdc
    8644:	eb0013a0 	bl	d4cc <gpio_set_off>
    8648:	eb0012a2 	bl	d0d8 <dev_barrier>
    864c:	e51b3020 	ldr	r3, [fp, #-32]	; 0xffffffe0
    8650:	e1a0e003 	mov	lr, r3
    8654:	e24bc01c 	sub	ip, fp, #28, 0
    8658:	e8bc000f 	ldm	ip!, {r0, r1, r2, r3}
    865c:	e8ae000f 	stmia	lr!, {r0, r1, r2, r3}
    8660:	e89c0003 	ldm	ip, {r0, r1}
    8664:	e88e0003 	stm	lr, {r0, r1}
    8668:	e51b0020 	ldr	r0, [fp, #-32]	; 0xffffffe0
    866c:	e24bd004 	sub	sp, fp, #4, 0
    8670:	e8bd8800 	pop	{fp, pc}
    8674:	0000e1d4 	.word	0x0000e1d4
    8678:	0000e7bc 	.word	0x0000e7bc
    867c:	0000e1c0 	.word	0x0000e1c0
    8680:	0000e15c 	.word	0x0000e15c
    8684:	0000e1f4 	.word	0x0000e1f4

00008688 <nrf_get8>:
    8688:	e92d4800 	push	{fp, lr}
    868c:	e28db004 	add	fp, sp, #4, 0
    8690:	e24dd028 	sub	sp, sp, #40, 0	; 0x28
    8694:	e50b0010 	str	r0, [fp, #-16]
    8698:	e1a03001 	mov	r3, r1
    869c:	e54b3011 	strb	r3, [fp, #-17]	; 0xffffffef
    86a0:	e55b3011 	ldrb	r3, [fp, #-17]	; 0xffffffef
    86a4:	e54b300c 	strb	r3, [fp, #-12]
    86a8:	e3e03000 	mvn	r3, #0, 0
    86ac:	e54b300b 	strb	r3, [fp, #-11]
    86b0:	e51b3010 	ldr	r3, [fp, #-16]
    86b4:	e3a02002 	mov	r2, #2, 0
    86b8:	e58d2010 	str	r2, [sp, #16]
    86bc:	e24b200c 	sub	r2, fp, #12, 0
    86c0:	e58d200c 	str	r2, [sp, #12]
    86c4:	e24b2008 	sub	r2, fp, #8, 0
    86c8:	e58d2008 	str	r2, [sp, #8]
    86cc:	e1a0c00d 	mov	ip, sp
    86d0:	e2832018 	add	r2, r3, #24, 0
    86d4:	e8920003 	ldm	r2, {r0, r1}
    86d8:	e88c0003 	stm	ip, {r0, r1}
    86dc:	e2833008 	add	r3, r3, #8, 0
    86e0:	e893000f 	ldm	r3, {r0, r1, r2, r3}
    86e4:	eb000dc6 	bl	be04 <spi_n_transfer>
    86e8:	e55b3007 	ldrb	r3, [fp, #-7]
    86ec:	e1a00003 	mov	r0, r3
    86f0:	e24bd004 	sub	sp, fp, #4, 0
    86f4:	e8bd8800 	pop	{fp, pc}

000086f8 <nrf_put8>:
    86f8:	e92d4800 	push	{fp, lr}
    86fc:	e28db004 	add	fp, sp, #4, 0
    8700:	e24dd028 	sub	sp, sp, #40, 0	; 0x28
    8704:	e50b0010 	str	r0, [fp, #-16]
    8708:	e1a03001 	mov	r3, r1
    870c:	e54b3011 	strb	r3, [fp, #-17]	; 0xffffffef
    8710:	e1a03002 	mov	r3, r2
    8714:	e54b3012 	strb	r3, [fp, #-18]	; 0xffffffee
    8718:	e55b3011 	ldrb	r3, [fp, #-17]	; 0xffffffef
    871c:	e3833020 	orr	r3, r3, #32, 0
    8720:	e6ef3073 	uxtb	r3, r3
    8724:	e54b300c 	strb	r3, [fp, #-12]
    8728:	e55b3012 	ldrb	r3, [fp, #-18]	; 0xffffffee
    872c:	e54b300b 	strb	r3, [fp, #-11]
    8730:	e51b3010 	ldr	r3, [fp, #-16]
    8734:	e3a02002 	mov	r2, #2, 0
    8738:	e58d2010 	str	r2, [sp, #16]
    873c:	e24b200c 	sub	r2, fp, #12, 0
    8740:	e58d200c 	str	r2, [sp, #12]
    8744:	e24b2008 	sub	r2, fp, #8, 0
    8748:	e58d2008 	str	r2, [sp, #8]
    874c:	e1a0c00d 	mov	ip, sp
    8750:	e2832018 	add	r2, r3, #24, 0
    8754:	e8920003 	ldm	r2, {r0, r1}
    8758:	e88c0003 	stm	ip, {r0, r1}
    875c:	e2833008 	add	r3, r3, #8, 0
    8760:	e893000f 	ldm	r3, {r0, r1, r2, r3}
    8764:	eb000da6 	bl	be04 <spi_n_transfer>
    8768:	e55b3008 	ldrb	r3, [fp, #-8]
    876c:	e1a00003 	mov	r0, r3
    8770:	e24bd004 	sub	sp, fp, #4, 0
    8774:	e8bd8800 	pop	{fp, pc}

00008778 <nrf_put8_chk_helper>:
    8778:	e92d4800 	push	{fp, lr}
    877c:	e28db004 	add	fp, sp, #4, 0
    8780:	e24dd018 	sub	sp, sp, #24, 0
    8784:	e24bc018 	sub	ip, fp, #24, 0
    8788:	e88c0007 	stm	ip, {r0, r1, r2}
    878c:	e50b301c 	str	r3, [fp, #-28]	; 0xffffffe4
    8790:	e5db2008 	ldrb	r2, [fp, #8]
    8794:	e5db3004 	ldrb	r3, [fp, #4]
    8798:	e1a01003 	mov	r1, r3
    879c:	e51b001c 	ldr	r0, [fp, #-28]	; 0xffffffe4
    87a0:	ebffffd4 	bl	86f8 <nrf_put8>
    87a4:	e1a03000 	mov	r3, r0
    87a8:	e54b3005 	strb	r3, [fp, #-5]
    87ac:	e5db3004 	ldrb	r3, [fp, #4]
    87b0:	e1a01003 	mov	r1, r3
    87b4:	e51b001c 	ldr	r0, [fp, #-28]	; 0xffffffe4
    87b8:	ebffffb2 	bl	8688 <nrf_get8>
    87bc:	e1a03000 	mov	r3, r0
    87c0:	e54b3006 	strb	r3, [fp, #-6]
    87c4:	e55b2006 	ldrb	r2, [fp, #-6]
    87c8:	e5db3008 	ldrb	r3, [fp, #8]
    87cc:	e1520003 	cmp	r2, r3
    87d0:	0a00000a 	beq	8800 <nrf_put8_chk_helper+0x88>
    87d4:	e51b1018 	ldr	r1, [fp, #-24]	; 0xffffffe8
    87d8:	e51b2014 	ldr	r2, [fp, #-20]	; 0xffffffec
    87dc:	e51b3010 	ldr	r3, [fp, #-16]
    87e0:	e59f0028 	ldr	r0, [pc, #40]	; 8810 <nrf_put8_chk_helper+0x98>
    87e4:	eb0011aa 	bl	ce94 <printk>
    87e8:	e5db1004 	ldrb	r1, [fp, #4]
    87ec:	e55b2006 	ldrb	r2, [fp, #-6]
    87f0:	e5db3008 	ldrb	r3, [fp, #8]
    87f4:	e59f0018 	ldr	r0, [pc, #24]	; 8814 <nrf_put8_chk_helper+0x9c>
    87f8:	eb0011a5 	bl	ce94 <printk>
    87fc:	eb0011fb 	bl	cff0 <clean_reboot>
    8800:	e55b3005 	ldrb	r3, [fp, #-5]
    8804:	e1a00003 	mov	r0, r3
    8808:	e24bd004 	sub	sp, fp, #4, 0
    880c:	e8bd8800 	pop	{fp, pc}
    8810:	0000e208 	.word	0x0000e208
    8814:	0000e220 	.word	0x0000e220

00008818 <nrf_getn>:
    8818:	e92d4800 	push	{fp, lr}
    881c:	e28db004 	add	fp, sp, #4, 0
    8820:	e24dd0a8 	sub	sp, sp, #168, 0	; 0xa8
    8824:	e50b0088 	str	r0, [fp, #-136]	; 0xffffff78
    8828:	e50b2090 	str	r2, [fp, #-144]	; 0xffffff70
    882c:	e50b3094 	str	r3, [fp, #-148]	; 0xffffff6c
    8830:	e1a03001 	mov	r3, r1
    8834:	e54b3089 	strb	r3, [fp, #-137]	; 0xffffff77
    8838:	e51b3094 	ldr	r3, [fp, #-148]	; 0xffffff6c
    883c:	e3530040 	cmp	r3, #64, 0	; 0x40
    8840:	9a000007 	bls	8864 <nrf_getn+0x4c>
    8844:	e59f30c8 	ldr	r3, [pc, #200]	; 8914 <nrf_getn+0xfc>
    8848:	e58d3000 	str	r3, [sp]
    884c:	e3a0305c 	mov	r3, #92, 0	; 0x5c
    8850:	e59f20c0 	ldr	r2, [pc, #192]	; 8918 <nrf_getn+0x100>
    8854:	e59f10c0 	ldr	r1, [pc, #192]	; 891c <nrf_getn+0x104>
    8858:	e59f00c0 	ldr	r0, [pc, #192]	; 8920 <nrf_getn+0x108>
    885c:	eb00118c 	bl	ce94 <printk>
    8860:	eb0011e2 	bl	cff0 <clean_reboot>
    8864:	e51b3094 	ldr	r3, [fp, #-148]	; 0xffffff6c
    8868:	e3530000 	cmp	r3, #0, 0
    886c:	1a000007 	bne	8890 <nrf_getn+0x78>
    8870:	e59f30ac 	ldr	r3, [pc, #172]	; 8924 <nrf_getn+0x10c>
    8874:	e58d3000 	str	r3, [sp]
    8878:	e3a0305d 	mov	r3, #93, 0	; 0x5d
    887c:	e59f2094 	ldr	r2, [pc, #148]	; 8918 <nrf_getn+0x100>
    8880:	e59f1094 	ldr	r1, [pc, #148]	; 891c <nrf_getn+0x104>
    8884:	e59f0094 	ldr	r0, [pc, #148]	; 8920 <nrf_getn+0x108>
    8888:	eb001181 	bl	ce94 <printk>
    888c:	eb0011d7 	bl	cff0 <clean_reboot>
    8890:	e55b3089 	ldrb	r3, [fp, #-137]	; 0xffffff77
    8894:	e54b3084 	strb	r3, [fp, #-132]	; 0xffffff7c
    8898:	e24b3084 	sub	r3, fp, #132, 0	; 0x84
    889c:	e2833001 	add	r3, r3, #1, 0
    88a0:	e51b2094 	ldr	r2, [fp, #-148]	; 0xffffff6c
    88a4:	e3a010ff 	mov	r1, #255, 0	; 0xff
    88a8:	e1a00003 	mov	r0, r3
    88ac:	eb000fcb 	bl	c7e0 <memset>
    88b0:	e51b3094 	ldr	r3, [fp, #-148]	; 0xffffff6c
    88b4:	e2832001 	add	r2, r3, #1, 0
    88b8:	e51b3088 	ldr	r3, [fp, #-136]	; 0xffffff78
    88bc:	e58d2010 	str	r2, [sp, #16]
    88c0:	e24b2084 	sub	r2, fp, #132, 0	; 0x84
    88c4:	e58d200c 	str	r2, [sp, #12]
    88c8:	e24b2044 	sub	r2, fp, #68, 0	; 0x44
    88cc:	e58d2008 	str	r2, [sp, #8]
    88d0:	e1a0c00d 	mov	ip, sp
    88d4:	e2832018 	add	r2, r3, #24, 0
    88d8:	e8920003 	ldm	r2, {r0, r1}
    88dc:	e88c0003 	stm	ip, {r0, r1}
    88e0:	e2833008 	add	r3, r3, #8, 0
    88e4:	e893000f 	ldm	r3, {r0, r1, r2, r3}
    88e8:	eb000d45 	bl	be04 <spi_n_transfer>
    88ec:	e24b3044 	sub	r3, fp, #68, 0	; 0x44
    88f0:	e2833001 	add	r3, r3, #1, 0
    88f4:	e51b2094 	ldr	r2, [fp, #-148]	; 0xffffff6c
    88f8:	e1a01003 	mov	r1, r3
    88fc:	e51b0090 	ldr	r0, [fp, #-144]	; 0xffffff70
    8900:	eb000f8f 	bl	c744 <memcpy>
    8904:	e55b3044 	ldrb	r3, [fp, #-68]	; 0xffffffbc
    8908:	e1a00003 	mov	r0, r3
    890c:	e24bd004 	sub	sp, fp, #4, 0
    8910:	e8bd8800 	pop	{fp, pc}
    8914:	0000e244 	.word	0x0000e244
    8918:	0000e7c8 	.word	0x0000e7c8
    891c:	0000e1c0 	.word	0x0000e1c0
    8920:	0000e15c 	.word	0x0000e15c
    8924:	0000e260 	.word	0x0000e260

00008928 <nrf_putn>:
    8928:	e92d4800 	push	{fp, lr}
    892c:	e28db004 	add	fp, sp, #4, 0
    8930:	e24dd0a8 	sub	sp, sp, #168, 0	; 0xa8
    8934:	e50b0088 	str	r0, [fp, #-136]	; 0xffffff78
    8938:	e50b2090 	str	r2, [fp, #-144]	; 0xffffff70
    893c:	e50b3094 	str	r3, [fp, #-148]	; 0xffffff6c
    8940:	e1a03001 	mov	r3, r1
    8944:	e54b3089 	strb	r3, [fp, #-137]	; 0xffffff77
    8948:	e51b3094 	ldr	r3, [fp, #-148]	; 0xffffff6c
    894c:	e3530040 	cmp	r3, #64, 0	; 0x40
    8950:	9a000007 	bls	8974 <nrf_putn+0x4c>
    8954:	e59f30b0 	ldr	r3, [pc, #176]	; 8a0c <nrf_putn+0xe4>
    8958:	e58d3000 	str	r3, [sp]
    895c:	e3a0306c 	mov	r3, #108, 0	; 0x6c
    8960:	e59f20a8 	ldr	r2, [pc, #168]	; 8a10 <nrf_putn+0xe8>
    8964:	e59f10a8 	ldr	r1, [pc, #168]	; 8a14 <nrf_putn+0xec>
    8968:	e59f00a8 	ldr	r0, [pc, #168]	; 8a18 <nrf_putn+0xf0>
    896c:	eb001148 	bl	ce94 <printk>
    8970:	eb00119e 	bl	cff0 <clean_reboot>
    8974:	e51b3094 	ldr	r3, [fp, #-148]	; 0xffffff6c
    8978:	e3530000 	cmp	r3, #0, 0
    897c:	1a000007 	bne	89a0 <nrf_putn+0x78>
    8980:	e59f3094 	ldr	r3, [pc, #148]	; 8a1c <nrf_putn+0xf4>
    8984:	e58d3000 	str	r3, [sp]
    8988:	e3a0306d 	mov	r3, #109, 0	; 0x6d
    898c:	e59f207c 	ldr	r2, [pc, #124]	; 8a10 <nrf_putn+0xe8>
    8990:	e59f107c 	ldr	r1, [pc, #124]	; 8a14 <nrf_putn+0xec>
    8994:	e59f007c 	ldr	r0, [pc, #124]	; 8a18 <nrf_putn+0xf0>
    8998:	eb00113d 	bl	ce94 <printk>
    899c:	eb001193 	bl	cff0 <clean_reboot>
    89a0:	e55b3089 	ldrb	r3, [fp, #-137]	; 0xffffff77
    89a4:	e54b3084 	strb	r3, [fp, #-132]	; 0xffffff7c
    89a8:	e24b3084 	sub	r3, fp, #132, 0	; 0x84
    89ac:	e2833001 	add	r3, r3, #1, 0
    89b0:	e51b2094 	ldr	r2, [fp, #-148]	; 0xffffff6c
    89b4:	e51b1090 	ldr	r1, [fp, #-144]	; 0xffffff70
    89b8:	e1a00003 	mov	r0, r3
    89bc:	eb000f60 	bl	c744 <memcpy>
    89c0:	e51b3094 	ldr	r3, [fp, #-148]	; 0xffffff6c
    89c4:	e2832001 	add	r2, r3, #1, 0
    89c8:	e51b3088 	ldr	r3, [fp, #-136]	; 0xffffff78
    89cc:	e58d2010 	str	r2, [sp, #16]
    89d0:	e24b2084 	sub	r2, fp, #132, 0	; 0x84
    89d4:	e58d200c 	str	r2, [sp, #12]
    89d8:	e24b2044 	sub	r2, fp, #68, 0	; 0x44
    89dc:	e58d2008 	str	r2, [sp, #8]
    89e0:	e1a0c00d 	mov	ip, sp
    89e4:	e2832018 	add	r2, r3, #24, 0
    89e8:	e8920003 	ldm	r2, {r0, r1}
    89ec:	e88c0003 	stm	ip, {r0, r1}
    89f0:	e2833008 	add	r3, r3, #8, 0
    89f4:	e893000f 	ldm	r3, {r0, r1, r2, r3}
    89f8:	eb000d01 	bl	be04 <spi_n_transfer>
    89fc:	e55b3044 	ldrb	r3, [fp, #-68]	; 0xffffffbc
    8a00:	e1a00003 	mov	r0, r3
    8a04:	e24bd004 	sub	sp, fp, #4, 0
    8a08:	e8bd8800 	pop	{fp, pc}
    8a0c:	0000e244 	.word	0x0000e244
    8a10:	0000e7d4 	.word	0x0000e7d4
    8a14:	0000e1c0 	.word	0x0000e1c0
    8a18:	0000e15c 	.word	0x0000e15c
    8a1c:	0000e260 	.word	0x0000e260

00008a20 <nrf_or8>:
    8a20:	e92d4800 	push	{fp, lr}
    8a24:	e28db004 	add	fp, sp, #4, 0
    8a28:	e24dd008 	sub	sp, sp, #8, 0
    8a2c:	e50b0008 	str	r0, [fp, #-8]
    8a30:	e1a03001 	mov	r3, r1
    8a34:	e54b3009 	strb	r3, [fp, #-9]
    8a38:	e1a03002 	mov	r3, r2
    8a3c:	e54b300a 	strb	r3, [fp, #-10]
    8a40:	e55b3009 	ldrb	r3, [fp, #-9]
    8a44:	e1a01003 	mov	r1, r3
    8a48:	e51b0008 	ldr	r0, [fp, #-8]
    8a4c:	ebffff0d 	bl	8688 <nrf_get8>
    8a50:	e1a03000 	mov	r3, r0
    8a54:	e1a02003 	mov	r2, r3
    8a58:	e55b300a 	ldrb	r3, [fp, #-10]
    8a5c:	e1823003 	orr	r3, r2, r3
    8a60:	e6ef2073 	uxtb	r2, r3
    8a64:	e55b3009 	ldrb	r3, [fp, #-9]
    8a68:	e1a01003 	mov	r1, r3
    8a6c:	e51b0008 	ldr	r0, [fp, #-8]
    8a70:	ebffff20 	bl	86f8 <nrf_put8>
    8a74:	e1a03000 	mov	r3, r0
    8a78:	e1a00003 	mov	r0, r3
    8a7c:	e24bd004 	sub	sp, fp, #4, 0
    8a80:	e8bd8800 	pop	{fp, pc}

00008a84 <nrf_bit_clr>:
    8a84:	e92d4800 	push	{fp, lr}
    8a88:	e28db004 	add	fp, sp, #4, 0
    8a8c:	e24dd028 	sub	sp, sp, #40, 0	; 0x28
    8a90:	e50b0018 	str	r0, [fp, #-24]	; 0xffffffe8
    8a94:	e1a03001 	mov	r3, r1
    8a98:	e50b2020 	str	r2, [fp, #-32]	; 0xffffffe0
    8a9c:	e54b3019 	strb	r3, [fp, #-25]	; 0xffffffe7
    8aa0:	e51b3020 	ldr	r3, [fp, #-32]	; 0xffffffe0
    8aa4:	e3530007 	cmp	r3, #7, 0
    8aa8:	9a000007 	bls	8acc <nrf_bit_clr+0x48>
    8aac:	e59f307c 	ldr	r3, [pc, #124]	; 8b30 <nrf_bit_clr+0xac>
    8ab0:	e58d3000 	str	r3, [sp]
    8ab4:	e3a0307c 	mov	r3, #124, 0	; 0x7c
    8ab8:	e59f2074 	ldr	r2, [pc, #116]	; 8b34 <nrf_bit_clr+0xb0>
    8abc:	e59f1074 	ldr	r1, [pc, #116]	; 8b38 <nrf_bit_clr+0xb4>
    8ac0:	e59f0074 	ldr	r0, [pc, #116]	; 8b3c <nrf_bit_clr+0xb8>
    8ac4:	eb0010f2 	bl	ce94 <printk>
    8ac8:	eb001148 	bl	cff0 <clean_reboot>
    8acc:	e24b0010 	sub	r0, fp, #16, 0
    8ad0:	e3a0307d 	mov	r3, #125, 0	; 0x7d
    8ad4:	e59f2058 	ldr	r2, [pc, #88]	; 8b34 <nrf_bit_clr+0xb0>
    8ad8:	e59f1058 	ldr	r1, [pc, #88]	; 8b38 <nrf_bit_clr+0xb4>
    8adc:	ebfffe6a 	bl	848c <src_loc_mk>
    8ae0:	e55b3019 	ldrb	r3, [fp, #-25]	; 0xffffffe7
    8ae4:	e1a01003 	mov	r1, r3
    8ae8:	e51b0018 	ldr	r0, [fp, #-24]	; 0xffffffe8
    8aec:	ebfffee5 	bl	8688 <nrf_get8>
    8af0:	e1a03000 	mov	r3, r0
    8af4:	e51b1020 	ldr	r1, [fp, #-32]	; 0xffffffe0
    8af8:	e1a00003 	mov	r0, r3
    8afc:	ebfffdbd 	bl	81f8 <bit_clr>
    8b00:	e1a03000 	mov	r3, r0
    8b04:	e6ef3073 	uxtb	r3, r3
    8b08:	e58d3004 	str	r3, [sp, #4]
    8b0c:	e55b3019 	ldrb	r3, [fp, #-25]	; 0xffffffe7
    8b10:	e58d3000 	str	r3, [sp]
    8b14:	e51b3018 	ldr	r3, [fp, #-24]	; 0xffffffe8
    8b18:	e24b2010 	sub	r2, fp, #16, 0
    8b1c:	e8920007 	ldm	r2, {r0, r1, r2}
    8b20:	ebffff14 	bl	8778 <nrf_put8_chk_helper>
    8b24:	e320f000 	nop	{0}
    8b28:	e24bd004 	sub	sp, fp, #4, 0
    8b2c:	e8bd8800 	pop	{fp, pc}
    8b30:	0000e26c 	.word	0x0000e26c
    8b34:	0000e7e0 	.word	0x0000e7e0
    8b38:	0000e1c0 	.word	0x0000e1c0
    8b3c:	0000e15c 	.word	0x0000e15c

00008b40 <nrf_bit_set>:
    8b40:	e92d4800 	push	{fp, lr}
    8b44:	e28db004 	add	fp, sp, #4, 0
    8b48:	e24dd028 	sub	sp, sp, #40, 0	; 0x28
    8b4c:	e50b0018 	str	r0, [fp, #-24]	; 0xffffffe8
    8b50:	e1a03001 	mov	r3, r1
    8b54:	e50b2020 	str	r2, [fp, #-32]	; 0xffffffe0
    8b58:	e54b3019 	strb	r3, [fp, #-25]	; 0xffffffe7
    8b5c:	e51b3020 	ldr	r3, [fp, #-32]	; 0xffffffe0
    8b60:	e3530007 	cmp	r3, #7, 0
    8b64:	9a000007 	bls	8b88 <nrf_bit_set+0x48>
    8b68:	e59f307c 	ldr	r3, [pc, #124]	; 8bec <nrf_bit_set+0xac>
    8b6c:	e58d3000 	str	r3, [sp]
    8b70:	e3a03081 	mov	r3, #129, 0	; 0x81
    8b74:	e59f2074 	ldr	r2, [pc, #116]	; 8bf0 <nrf_bit_set+0xb0>
    8b78:	e59f1074 	ldr	r1, [pc, #116]	; 8bf4 <nrf_bit_set+0xb4>
    8b7c:	e59f0074 	ldr	r0, [pc, #116]	; 8bf8 <nrf_bit_set+0xb8>
    8b80:	eb0010c3 	bl	ce94 <printk>
    8b84:	eb001119 	bl	cff0 <clean_reboot>
    8b88:	e24b0010 	sub	r0, fp, #16, 0
    8b8c:	e3a03082 	mov	r3, #130, 0	; 0x82
    8b90:	e59f2058 	ldr	r2, [pc, #88]	; 8bf0 <nrf_bit_set+0xb0>
    8b94:	e59f1058 	ldr	r1, [pc, #88]	; 8bf4 <nrf_bit_set+0xb4>
    8b98:	ebfffe3b 	bl	848c <src_loc_mk>
    8b9c:	e55b3019 	ldrb	r3, [fp, #-25]	; 0xffffffe7
    8ba0:	e1a01003 	mov	r1, r3
    8ba4:	e51b0018 	ldr	r0, [fp, #-24]	; 0xffffffe8
    8ba8:	ebfffeb6 	bl	8688 <nrf_get8>
    8bac:	e1a03000 	mov	r3, r0
    8bb0:	e51b1020 	ldr	r1, [fp, #-32]	; 0xffffffe0
    8bb4:	e1a00003 	mov	r0, r3
    8bb8:	ebfffdac 	bl	8270 <bit_set>
    8bbc:	e1a03000 	mov	r3, r0
    8bc0:	e6ef3073 	uxtb	r3, r3
    8bc4:	e58d3004 	str	r3, [sp, #4]
    8bc8:	e55b3019 	ldrb	r3, [fp, #-25]	; 0xffffffe7
    8bcc:	e58d3000 	str	r3, [sp]
    8bd0:	e51b3018 	ldr	r3, [fp, #-24]	; 0xffffffe8
    8bd4:	e24b2010 	sub	r2, fp, #16, 0
    8bd8:	e8920007 	ldm	r2, {r0, r1, r2}
    8bdc:	ebfffee5 	bl	8778 <nrf_put8_chk_helper>
    8be0:	e320f000 	nop	{0}
    8be4:	e24bd004 	sub	sp, fp, #4, 0
    8be8:	e8bd8800 	pop	{fp, pc}
    8bec:	0000e26c 	.word	0x0000e26c
    8bf0:	0000e7f4 	.word	0x0000e7f4
    8bf4:	0000e1c0 	.word	0x0000e1c0
    8bf8:	0000e15c 	.word	0x0000e15c

00008bfc <nrf_bit_isset>:
    8bfc:	e92d4800 	push	{fp, lr}
    8c00:	e28db004 	add	fp, sp, #4, 0
    8c04:	e24dd010 	sub	sp, sp, #16, 0
    8c08:	e50b0008 	str	r0, [fp, #-8]
    8c0c:	e1a03001 	mov	r3, r1
    8c10:	e54b3009 	strb	r3, [fp, #-9]
    8c14:	e1a03002 	mov	r3, r2
    8c18:	e54b300a 	strb	r3, [fp, #-10]
    8c1c:	e55b300a 	ldrb	r3, [fp, #-10]
    8c20:	e3530007 	cmp	r3, #7, 0
    8c24:	9a000007 	bls	8c48 <nrf_bit_isset+0x4c>
    8c28:	e59f3060 	ldr	r3, [pc, #96]	; 8c90 <nrf_bit_isset+0x94>
    8c2c:	e58d3000 	str	r3, [sp]
    8c30:	e3a03086 	mov	r3, #134, 0	; 0x86
    8c34:	e59f2058 	ldr	r2, [pc, #88]	; 8c94 <nrf_bit_isset+0x98>
    8c38:	e59f1058 	ldr	r1, [pc, #88]	; 8c98 <nrf_bit_isset+0x9c>
    8c3c:	e59f0058 	ldr	r0, [pc, #88]	; 8c9c <nrf_bit_isset+0xa0>
    8c40:	eb001093 	bl	ce94 <printk>
    8c44:	eb0010e9 	bl	cff0 <clean_reboot>
    8c48:	e55b3009 	ldrb	r3, [fp, #-9]
    8c4c:	e1a01003 	mov	r1, r3
    8c50:	e51b0008 	ldr	r0, [fp, #-8]
    8c54:	ebfffe8b 	bl	8688 <nrf_get8>
    8c58:	e1a03000 	mov	r3, r0
    8c5c:	e1a02003 	mov	r2, r3
    8c60:	e55b300a 	ldrb	r3, [fp, #-10]
    8c64:	e1a01003 	mov	r1, r3
    8c68:	e1a00002 	mov	r0, r2
    8c6c:	ebfffd9c 	bl	82e4 <bit_is_on>
    8c70:	e1a03000 	mov	r3, r0
    8c74:	e3530001 	cmp	r3, #1, 0
    8c78:	03a03001 	moveq	r3, #1, 0
    8c7c:	13a03000 	movne	r3, #0, 0
    8c80:	e6ef3073 	uxtb	r3, r3
    8c84:	e1a00003 	mov	r0, r3
    8c88:	e24bd004 	sub	sp, fp, #4, 0
    8c8c:	e8bd8800 	pop	{fp, pc}
    8c90:	0000e274 	.word	0x0000e274
    8c94:	0000e808 	.word	0x0000e808
    8c98:	0000e1c0 	.word	0x0000e1c0
    8c9c:	0000e15c 	.word	0x0000e15c

00008ca0 <nrf_get_addr>:
    8ca0:	e92d4800 	push	{fp, lr}
    8ca4:	e28db004 	add	fp, sp, #4, 0
    8ca8:	e24dd020 	sub	sp, sp, #32, 0
    8cac:	e50b0010 	str	r0, [fp, #-16]
    8cb0:	e1a03001 	mov	r3, r1
    8cb4:	e50b2018 	str	r2, [fp, #-24]	; 0xffffffe8
    8cb8:	e54b3011 	strb	r3, [fp, #-17]	; 0xffffffef
    8cbc:	e51b3018 	ldr	r3, [fp, #-24]	; 0xffffffe8
    8cc0:	e3530004 	cmp	r3, #4, 0
    8cc4:	0a000002 	beq	8cd4 <nrf_get_addr+0x34>
    8cc8:	e51b3018 	ldr	r3, [fp, #-24]	; 0xffffffe8
    8ccc:	e3530003 	cmp	r3, #3, 0
    8cd0:	1a000001 	bne	8cdc <nrf_get_addr+0x3c>
    8cd4:	e3a03001 	mov	r3, #1, 0
    8cd8:	ea000000 	b	8ce0 <nrf_get_addr+0x40>
    8cdc:	e3a03000 	mov	r3, #0, 0
    8ce0:	e3530000 	cmp	r3, #0, 0
    8ce4:	1a000007 	bne	8d08 <nrf_get_addr+0x68>
    8ce8:	e59f3070 	ldr	r3, [pc, #112]	; 8d60 <nrf_get_addr+0xc0>
    8cec:	e58d3000 	str	r3, [sp]
    8cf0:	e3a0308e 	mov	r3, #142, 0	; 0x8e
    8cf4:	e59f2068 	ldr	r2, [pc, #104]	; 8d64 <nrf_get_addr+0xc4>
    8cf8:	e59f1068 	ldr	r1, [pc, #104]	; 8d68 <nrf_get_addr+0xc8>
    8cfc:	e59f0068 	ldr	r0, [pc, #104]	; 8d6c <nrf_get_addr+0xcc>
    8d00:	eb001063 	bl	ce94 <printk>
    8d04:	eb0010b9 	bl	cff0 <clean_reboot>
    8d08:	e3a03000 	mov	r3, #0, 0
    8d0c:	e50b3008 	str	r3, [fp, #-8]
    8d10:	e51b3018 	ldr	r3, [fp, #-24]	; 0xffffffe8
    8d14:	e3530003 	cmp	r3, #3, 0
    8d18:	0a000007 	beq	8d3c <nrf_get_addr+0x9c>
    8d1c:	e59f304c 	ldr	r3, [pc, #76]	; 8d70 <nrf_get_addr+0xd0>
    8d20:	e58d3000 	str	r3, [sp]
    8d24:	e3a03090 	mov	r3, #144, 0	; 0x90
    8d28:	e59f2034 	ldr	r2, [pc, #52]	; 8d64 <nrf_get_addr+0xc4>
    8d2c:	e59f1034 	ldr	r1, [pc, #52]	; 8d68 <nrf_get_addr+0xc8>
    8d30:	e59f0034 	ldr	r0, [pc, #52]	; 8d6c <nrf_get_addr+0xcc>
    8d34:	eb001056 	bl	ce94 <printk>
    8d38:	eb0010ac 	bl	cff0 <clean_reboot>
    8d3c:	e24b2008 	sub	r2, fp, #8, 0
    8d40:	e55b1011 	ldrb	r1, [fp, #-17]	; 0xffffffef
    8d44:	e51b3018 	ldr	r3, [fp, #-24]	; 0xffffffe8
    8d48:	e51b0010 	ldr	r0, [fp, #-16]
    8d4c:	ebfffeb1 	bl	8818 <nrf_getn>
    8d50:	e51b3008 	ldr	r3, [fp, #-8]
    8d54:	e1a00003 	mov	r0, r3
    8d58:	e24bd004 	sub	sp, fp, #4, 0
    8d5c:	e8bd8800 	pop	{fp, pc}
    8d60:	0000e27c 	.word	0x0000e27c
    8d64:	0000e824 	.word	0x0000e824
    8d68:	0000e1c0 	.word	0x0000e1c0
    8d6c:	0000e15c 	.word	0x0000e15c
    8d70:	0000e294 	.word	0x0000e294

00008d74 <nrf_set_addr>:
    8d74:	e92d4800 	push	{fp, lr}
    8d78:	e28db004 	add	fp, sp, #4, 0
    8d7c:	e24dd018 	sub	sp, sp, #24, 0
    8d80:	e50b0008 	str	r0, [fp, #-8]
    8d84:	e50b2010 	str	r2, [fp, #-16]
    8d88:	e50b3014 	str	r3, [fp, #-20]	; 0xffffffec
    8d8c:	e1a03001 	mov	r3, r1
    8d90:	e54b3009 	strb	r3, [fp, #-9]
    8d94:	e51b3014 	ldr	r3, [fp, #-20]	; 0xffffffec
    8d98:	e3530003 	cmp	r3, #3, 0
    8d9c:	0a000007 	beq	8dc0 <nrf_set_addr+0x4c>
    8da0:	e59f30dc 	ldr	r3, [pc, #220]	; 8e84 <nrf_set_addr+0x110>
    8da4:	e58d3000 	str	r3, [sp]
    8da8:	e3a03096 	mov	r3, #150, 0	; 0x96
    8dac:	e59f20d4 	ldr	r2, [pc, #212]	; 8e88 <nrf_set_addr+0x114>
    8db0:	e59f10d4 	ldr	r1, [pc, #212]	; 8e8c <nrf_set_addr+0x118>
    8db4:	e59f00d4 	ldr	r0, [pc, #212]	; 8e90 <nrf_set_addr+0x11c>
    8db8:	eb001035 	bl	ce94 <printk>
    8dbc:	eb00108b 	bl	cff0 <clean_reboot>
    8dc0:	e51b3014 	ldr	r3, [fp, #-20]	; 0xffffffec
    8dc4:	e3530004 	cmp	r3, #4, 0
    8dc8:	0a000002 	beq	8dd8 <nrf_set_addr+0x64>
    8dcc:	e51b3014 	ldr	r3, [fp, #-20]	; 0xffffffec
    8dd0:	e3530003 	cmp	r3, #3, 0
    8dd4:	1a000001 	bne	8de0 <nrf_set_addr+0x6c>
    8dd8:	e3a03001 	mov	r3, #1, 0
    8ddc:	ea000000 	b	8de4 <nrf_set_addr+0x70>
    8de0:	e3a03000 	mov	r3, #0, 0
    8de4:	e3530000 	cmp	r3, #0, 0
    8de8:	1a000007 	bne	8e0c <nrf_set_addr+0x98>
    8dec:	e59f30a0 	ldr	r3, [pc, #160]	; 8e94 <nrf_set_addr+0x120>
    8df0:	e58d3000 	str	r3, [sp]
    8df4:	e3a03097 	mov	r3, #151, 0	; 0x97
    8df8:	e59f2088 	ldr	r2, [pc, #136]	; 8e88 <nrf_set_addr+0x114>
    8dfc:	e59f1088 	ldr	r1, [pc, #136]	; 8e8c <nrf_set_addr+0x118>
    8e00:	e59f0088 	ldr	r0, [pc, #136]	; 8e90 <nrf_set_addr+0x11c>
    8e04:	eb001022 	bl	ce94 <printk>
    8e08:	eb001078 	bl	cff0 <clean_reboot>
    8e0c:	e55b3009 	ldrb	r3, [fp, #-9]
    8e10:	e3833020 	orr	r3, r3, #32, 0
    8e14:	e6ef1073 	uxtb	r1, r3
    8e18:	e24b2010 	sub	r2, fp, #16, 0
    8e1c:	e51b3014 	ldr	r3, [fp, #-20]	; 0xffffffec
    8e20:	e51b0008 	ldr	r0, [fp, #-8]
    8e24:	ebfffebf 	bl	8928 <nrf_putn>
    8e28:	e55b3009 	ldrb	r3, [fp, #-9]
    8e2c:	e51b2014 	ldr	r2, [fp, #-20]	; 0xffffffec
    8e30:	e1a01003 	mov	r1, r3
    8e34:	e51b0008 	ldr	r0, [fp, #-8]
    8e38:	ebffff98 	bl	8ca0 <nrf_get_addr>
    8e3c:	e1a02000 	mov	r2, r0
    8e40:	e51b3010 	ldr	r3, [fp, #-16]
    8e44:	e1520003 	cmp	r2, r3
    8e48:	0a00000a 	beq	8e78 <nrf_set_addr+0x104>
    8e4c:	e51b1008 	ldr	r1, [fp, #-8]
    8e50:	e59f0040 	ldr	r0, [pc, #64]	; 8e98 <nrf_set_addr+0x124>
    8e54:	eb00005f 	bl	8fd8 <nrf_dump>
    8e58:	e59f303c 	ldr	r3, [pc, #60]	; 8e9c <nrf_set_addr+0x128>
    8e5c:	e58d3000 	str	r3, [sp]
    8e60:	e3a0309d 	mov	r3, #157, 0	; 0x9d
    8e64:	e59f201c 	ldr	r2, [pc, #28]	; 8e88 <nrf_set_addr+0x114>
    8e68:	e59f101c 	ldr	r1, [pc, #28]	; 8e8c <nrf_set_addr+0x118>
    8e6c:	e59f002c 	ldr	r0, [pc, #44]	; 8ea0 <nrf_set_addr+0x12c>
    8e70:	eb001007 	bl	ce94 <printk>
    8e74:	eb00105d 	bl	cff0 <clean_reboot>
    8e78:	e320f000 	nop	{0}
    8e7c:	e24bd004 	sub	sp, fp, #4, 0
    8e80:	e8bd8800 	pop	{fp, pc}
    8e84:	0000e294 	.word	0x0000e294
    8e88:	0000e834 	.word	0x0000e834
    8e8c:	0000e1c0 	.word	0x0000e1c0
    8e90:	0000e15c 	.word	0x0000e15c
    8e94:	0000e27c 	.word	0x0000e27c
    8e98:	0000e2b8 	.word	0x0000e2b8
    8e9c:	0000e2e0 	.word	0x0000e2e0
    8ea0:	0000e2cc 	.word	0x0000e2cc

00008ea4 <nrf_tx_flush>:
    8ea4:	e92d4800 	push	{fp, lr}
    8ea8:	e28db004 	add	fp, sp, #4, 0
    8eac:	e24dd028 	sub	sp, sp, #40, 0	; 0x28
    8eb0:	e50b0010 	str	r0, [fp, #-16]
    8eb4:	e3e0301e 	mvn	r3, #30, 0
    8eb8:	e54b3005 	strb	r3, [fp, #-5]
    8ebc:	e3a03000 	mov	r3, #0, 0
    8ec0:	e54b3006 	strb	r3, [fp, #-6]
    8ec4:	e51b3010 	ldr	r3, [fp, #-16]
    8ec8:	e3a02001 	mov	r2, #1, 0
    8ecc:	e58d2010 	str	r2, [sp, #16]
    8ed0:	e24b2005 	sub	r2, fp, #5, 0
    8ed4:	e58d200c 	str	r2, [sp, #12]
    8ed8:	e24b2006 	sub	r2, fp, #6, 0
    8edc:	e58d2008 	str	r2, [sp, #8]
    8ee0:	e1a0c00d 	mov	ip, sp
    8ee4:	e2832018 	add	r2, r3, #24, 0
    8ee8:	e8920003 	ldm	r2, {r0, r1}
    8eec:	e88c0003 	stm	ip, {r0, r1}
    8ef0:	e2833008 	add	r3, r3, #8, 0
    8ef4:	e893000f 	ldm	r3, {r0, r1, r2, r3}
    8ef8:	eb000bc1 	bl	be04 <spi_n_transfer>
    8efc:	e55b3006 	ldrb	r3, [fp, #-6]
    8f00:	e1a00003 	mov	r0, r3
    8f04:	e24bd004 	sub	sp, fp, #4, 0
    8f08:	e8bd8800 	pop	{fp, pc}

00008f0c <nrf_rx_flush>:
    8f0c:	e92d4800 	push	{fp, lr}
    8f10:	e28db004 	add	fp, sp, #4, 0
    8f14:	e24dd028 	sub	sp, sp, #40, 0	; 0x28
    8f18:	e50b0010 	str	r0, [fp, #-16]
    8f1c:	e3e0301d 	mvn	r3, #29, 0
    8f20:	e54b3005 	strb	r3, [fp, #-5]
    8f24:	e3a03000 	mov	r3, #0, 0
    8f28:	e54b3006 	strb	r3, [fp, #-6]
    8f2c:	e51b3010 	ldr	r3, [fp, #-16]
    8f30:	e3a02001 	mov	r2, #1, 0
    8f34:	e58d2010 	str	r2, [sp, #16]
    8f38:	e24b2005 	sub	r2, fp, #5, 0
    8f3c:	e58d200c 	str	r2, [sp, #12]
    8f40:	e24b2006 	sub	r2, fp, #6, 0
    8f44:	e58d2008 	str	r2, [sp, #8]
    8f48:	e1a0c00d 	mov	ip, sp
    8f4c:	e2832018 	add	r2, r3, #24, 0
    8f50:	e8920003 	ldm	r2, {r0, r1}
    8f54:	e88c0003 	stm	ip, {r0, r1}
    8f58:	e2833008 	add	r3, r3, #8, 0
    8f5c:	e893000f 	ldm	r3, {r0, r1, r2, r3}
    8f60:	eb000ba7 	bl	be04 <spi_n_transfer>
    8f64:	e55b3006 	ldrb	r3, [fp, #-6]
    8f68:	e1a00003 	mov	r0, r3
    8f6c:	e24bd004 	sub	sp, fp, #4, 0
    8f70:	e8bd8800 	pop	{fp, pc}

00008f74 <nrf_conf_print>:
    8f74:	e92d4800 	push	{fp, lr}
    8f78:	e28db004 	add	fp, sp, #4, 0
    8f7c:	e24dd010 	sub	sp, sp, #16, 0
    8f80:	e50b0008 	str	r0, [fp, #-8]
    8f84:	e50b100c 	str	r1, [fp, #-12]
    8f88:	e59f0040 	ldr	r0, [pc, #64]	; 8fd0 <nrf_conf_print+0x5c>
    8f8c:	eb000fc0 	bl	ce94 <printk>
    8f90:	e51b300c 	ldr	r3, [fp, #-12]
    8f94:	e5d33001 	ldrb	r3, [r3, #1]
    8f98:	e1a02003 	mov	r2, r3
    8f9c:	e51b300c 	ldr	r3, [fp, #-12]
    8fa0:	e5d33002 	ldrb	r3, [r3, #2]
    8fa4:	e1a01003 	mov	r1, r3
    8fa8:	e51b300c 	ldr	r3, [fp, #-12]
    8fac:	e5d33000 	ldrb	r3, [r3]
    8fb0:	e58d3000 	str	r3, [sp]
    8fb4:	e1a03001 	mov	r3, r1
    8fb8:	e51b1008 	ldr	r1, [fp, #-8]
    8fbc:	e59f0010 	ldr	r0, [pc, #16]	; 8fd4 <nrf_conf_print+0x60>
    8fc0:	eb000fb3 	bl	ce94 <printk>
    8fc4:	e320f000 	nop	{0}
    8fc8:	e24bd004 	sub	sp, fp, #4, 0
    8fcc:	e8bd8800 	pop	{fp, pc}
    8fd0:	0000e308 	.word	0x0000e308
    8fd4:	0000e310 	.word	0x0000e310

00008fd8 <nrf_dump>:
    8fd8:	e92d4bf0 	push	{r4, r5, r6, r7, r8, r9, fp, lr}
    8fdc:	e28db01c 	add	fp, sp, #28, 0
    8fe0:	e24dd050 	sub	sp, sp, #80, 0	; 0x50
    8fe4:	e50b0058 	str	r0, [fp, #-88]	; 0xffffffa8
    8fe8:	e50b105c 	str	r1, [fp, #-92]	; 0xffffffa4
    8fec:	e59f07b8 	ldr	r0, [pc, #1976]	; 97ac <nrf_dump+0x7d4>
    8ff0:	eb000fa7 	bl	ce94 <printk>
    8ff4:	e59f07b4 	ldr	r0, [pc, #1972]	; 97b0 <nrf_dump+0x7d8>
    8ff8:	eb000fa5 	bl	ce94 <printk>
    8ffc:	e59f07a8 	ldr	r0, [pc, #1960]	; 97ac <nrf_dump+0x7d4>
    9000:	eb000fa3 	bl	ce94 <printk>
    9004:	e51b1058 	ldr	r1, [fp, #-88]	; 0xffffffa8
    9008:	e59f07a4 	ldr	r0, [pc, #1956]	; 97b4 <nrf_dump+0x7dc>
    900c:	eb000fa0 	bl	ce94 <printk>
    9010:	e51b305c 	ldr	r3, [fp, #-92]	; 0xffffffa4
    9014:	e1a01003 	mov	r1, r3
    9018:	e59f0798 	ldr	r0, [pc, #1944]	; 97b8 <nrf_dump+0x7e0>
    901c:	ebffffd4 	bl	8f74 <nrf_conf_print>
    9020:	e3a01000 	mov	r1, #0, 0
    9024:	e51b005c 	ldr	r0, [fp, #-92]	; 0xffffffa4
    9028:	ebfffd96 	bl	8688 <nrf_get8>
    902c:	e1a03000 	mov	r3, r0
    9030:	e54b302d 	strb	r3, [fp, #-45]	; 0xffffffd3
    9034:	e59f0770 	ldr	r0, [pc, #1904]	; 97ac <nrf_dump+0x7d4>
    9038:	eb000f95 	bl	ce94 <printk>
    903c:	e55b402d 	ldrb	r4, [fp, #-45]	; 0xffffffd3
    9040:	e55b302d 	ldrb	r3, [fp, #-45]	; 0xffffffd3
    9044:	e3a01001 	mov	r1, #1, 0
    9048:	e1a00003 	mov	r0, r3
    904c:	ebfffca4 	bl	82e4 <bit_is_on>
    9050:	e1a06000 	mov	r6, r0
    9054:	e55b302d 	ldrb	r3, [fp, #-45]	; 0xffffffd3
    9058:	e3a01000 	mov	r1, #0, 0
    905c:	e1a00003 	mov	r0, r3
    9060:	ebfffc9f 	bl	82e4 <bit_is_on>
    9064:	e1a07000 	mov	r7, r0
    9068:	e55b302d 	ldrb	r3, [fp, #-45]	; 0xffffffd3
    906c:	e3a01002 	mov	r1, #2, 0
    9070:	e1a00003 	mov	r0, r3
    9074:	ebfffc9a 	bl	82e4 <bit_is_on>
    9078:	e1a05000 	mov	r5, r0
    907c:	e55b302d 	ldrb	r3, [fp, #-45]	; 0xffffffd3
    9080:	e3a01003 	mov	r1, #3, 0
    9084:	e1a00003 	mov	r0, r3
    9088:	ebfffc95 	bl	82e4 <bit_is_on>
    908c:	e1a03000 	mov	r3, r0
    9090:	e58d3004 	str	r3, [sp, #4]
    9094:	e58d5000 	str	r5, [sp]
    9098:	e1a03007 	mov	r3, r7
    909c:	e1a02006 	mov	r2, r6
    90a0:	e1a01004 	mov	r1, r4
    90a4:	e59f0710 	ldr	r0, [pc, #1808]	; 97bc <nrf_dump+0x7e4>
    90a8:	eb000f79 	bl	ce94 <printk>
    90ac:	e55b302d 	ldrb	r3, [fp, #-45]	; 0xffffffd3
    90b0:	e3a01006 	mov	r1, #6, 0
    90b4:	e1a00003 	mov	r0, r3
    90b8:	ebfffc89 	bl	82e4 <bit_is_on>
    90bc:	e1a04000 	mov	r4, r0
    90c0:	e55b302d 	ldrb	r3, [fp, #-45]	; 0xffffffd3
    90c4:	e3a01005 	mov	r1, #5, 0
    90c8:	e1a00003 	mov	r0, r3
    90cc:	ebfffc84 	bl	82e4 <bit_is_on>
    90d0:	e1a05000 	mov	r5, r0
    90d4:	e55b302d 	ldrb	r3, [fp, #-45]	; 0xffffffd3
    90d8:	e3a01004 	mov	r1, #4, 0
    90dc:	e1a00003 	mov	r0, r3
    90e0:	ebfffc7f 	bl	82e4 <bit_is_on>
    90e4:	e1a03000 	mov	r3, r0
    90e8:	e1a02005 	mov	r2, r5
    90ec:	e1a01004 	mov	r1, r4
    90f0:	e59f06c8 	ldr	r0, [pc, #1736]	; 97c0 <nrf_dump+0x7e8>
    90f4:	eb000f66 	bl	ce94 <printk>
    90f8:	e3a01001 	mov	r1, #1, 0
    90fc:	e51b005c 	ldr	r0, [fp, #-92]	; 0xffffffa4
    9100:	ebfffd60 	bl	8688 <nrf_get8>
    9104:	e1a03000 	mov	r3, r0
    9108:	e54b302d 	strb	r3, [fp, #-45]	; 0xffffffd3
    910c:	e59f0698 	ldr	r0, [pc, #1688]	; 97ac <nrf_dump+0x7d4>
    9110:	eb000f5f 	bl	ce94 <printk>
    9114:	e55b302d 	ldrb	r3, [fp, #-45]	; 0xffffffd3
    9118:	e1a01003 	mov	r1, r3
    911c:	e59f06a0 	ldr	r0, [pc, #1696]	; 97c4 <nrf_dump+0x7ec>
    9120:	eb000f5b 	bl	ce94 <printk>
    9124:	e55b302d 	ldrb	r3, [fp, #-45]	; 0xffffffd3
    9128:	e353003f 	cmp	r3, #63, 0	; 0x3f
    912c:	1a000002 	bne	913c <nrf_dump+0x164>
    9130:	e59f0690 	ldr	r0, [pc, #1680]	; 97c8 <nrf_dump+0x7f0>
    9134:	eb000f56 	bl	ce94 <printk>
    9138:	ea000017 	b	919c <nrf_dump+0x1c4>
    913c:	e59f0688 	ldr	r0, [pc, #1672]	; 97cc <nrf_dump+0x7f4>
    9140:	eb000f53 	bl	ce94 <printk>
    9144:	e3a03000 	mov	r3, #0, 0
    9148:	e50b3020 	str	r3, [fp, #-32]	; 0xffffffe0
    914c:	ea00000d 	b	9188 <nrf_dump+0x1b0>
    9150:	e55b302d 	ldrb	r3, [fp, #-45]	; 0xffffffd3
    9154:	e51b2020 	ldr	r2, [fp, #-32]	; 0xffffffe0
    9158:	e1a01002 	mov	r1, r2
    915c:	e1a00003 	mov	r0, r3
    9160:	ebfffc5f 	bl	82e4 <bit_is_on>
    9164:	e1a03000 	mov	r3, r0
    9168:	e3530000 	cmp	r3, #0, 0
    916c:	0a000002 	beq	917c <nrf_dump+0x1a4>
    9170:	e51b1020 	ldr	r1, [fp, #-32]	; 0xffffffe0
    9174:	e59f0654 	ldr	r0, [pc, #1620]	; 97d0 <nrf_dump+0x7f8>
    9178:	eb000f45 	bl	ce94 <printk>
    917c:	e51b3020 	ldr	r3, [fp, #-32]	; 0xffffffe0
    9180:	e2833001 	add	r3, r3, #1, 0
    9184:	e50b3020 	str	r3, [fp, #-32]	; 0xffffffe0
    9188:	e51b3020 	ldr	r3, [fp, #-32]	; 0xffffffe0
    918c:	e3530005 	cmp	r3, #5, 0
    9190:	daffffee 	ble	9150 <nrf_dump+0x178>
    9194:	e59f0638 	ldr	r0, [pc, #1592]	; 97d4 <nrf_dump+0x7fc>
    9198:	eb000f3d 	bl	ce94 <printk>
    919c:	e3a01002 	mov	r1, #2, 0
    91a0:	e51b005c 	ldr	r0, [fp, #-92]	; 0xffffffa4
    91a4:	ebfffd37 	bl	8688 <nrf_get8>
    91a8:	e1a03000 	mov	r3, r0
    91ac:	e54b302d 	strb	r3, [fp, #-45]	; 0xffffffd3
    91b0:	e59f05f4 	ldr	r0, [pc, #1524]	; 97ac <nrf_dump+0x7d4>
    91b4:	eb000f36 	bl	ce94 <printk>
    91b8:	e55b302d 	ldrb	r3, [fp, #-45]	; 0xffffffd3
    91bc:	e1a01003 	mov	r1, r3
    91c0:	e59f0610 	ldr	r0, [pc, #1552]	; 97d8 <nrf_dump+0x800>
    91c4:	eb000f32 	bl	ce94 <printk>
    91c8:	e55b302d 	ldrb	r3, [fp, #-45]	; 0xffffffd3
    91cc:	e353003f 	cmp	r3, #63, 0	; 0x3f
    91d0:	1a000002 	bne	91e0 <nrf_dump+0x208>
    91d4:	e59f0600 	ldr	r0, [pc, #1536]	; 97dc <nrf_dump+0x804>
    91d8:	eb000f2d 	bl	ce94 <printk>
    91dc:	ea000017 	b	9240 <nrf_dump+0x268>
    91e0:	e59f05f8 	ldr	r0, [pc, #1528]	; 97e0 <nrf_dump+0x808>
    91e4:	eb000f2a 	bl	ce94 <printk>
    91e8:	e3a03000 	mov	r3, #0, 0
    91ec:	e50b3024 	str	r3, [fp, #-36]	; 0xffffffdc
    91f0:	ea00000d 	b	922c <nrf_dump+0x254>
    91f4:	e55b302d 	ldrb	r3, [fp, #-45]	; 0xffffffd3
    91f8:	e51b2024 	ldr	r2, [fp, #-36]	; 0xffffffdc
    91fc:	e1a01002 	mov	r1, r2
    9200:	e1a00003 	mov	r0, r3
    9204:	ebfffc36 	bl	82e4 <bit_is_on>
    9208:	e1a03000 	mov	r3, r0
    920c:	e3530000 	cmp	r3, #0, 0
    9210:	0a000002 	beq	9220 <nrf_dump+0x248>
    9214:	e51b1024 	ldr	r1, [fp, #-36]	; 0xffffffdc
    9218:	e59f05c4 	ldr	r0, [pc, #1476]	; 97e4 <nrf_dump+0x80c>
    921c:	eb000f1c 	bl	ce94 <printk>
    9220:	e51b3024 	ldr	r3, [fp, #-36]	; 0xffffffdc
    9224:	e2833001 	add	r3, r3, #1, 0
    9228:	e50b3024 	str	r3, [fp, #-36]	; 0xffffffdc
    922c:	e51b3024 	ldr	r3, [fp, #-36]	; 0xffffffdc
    9230:	e3530005 	cmp	r3, #5, 0
    9234:	daffffee 	ble	91f4 <nrf_dump+0x21c>
    9238:	e59f0594 	ldr	r0, [pc, #1428]	; 97d4 <nrf_dump+0x7fc>
    923c:	eb000f14 	bl	ce94 <printk>
    9240:	e3a01003 	mov	r1, #3, 0
    9244:	e51b005c 	ldr	r0, [fp, #-92]	; 0xffffffa4
    9248:	ebfffd0e 	bl	8688 <nrf_get8>
    924c:	e1a03000 	mov	r3, r0
    9250:	e54b302d 	strb	r3, [fp, #-45]	; 0xffffffd3
    9254:	e55b302d 	ldrb	r3, [fp, #-45]	; 0xffffffd3
    9258:	e3530000 	cmp	r3, #0, 0
    925c:	0a000004 	beq	9274 <nrf_dump+0x29c>
    9260:	e55b302d 	ldrb	r3, [fp, #-45]	; 0xffffffd3
    9264:	e3530003 	cmp	r3, #3, 0
    9268:	8a000001 	bhi	9274 <nrf_dump+0x29c>
    926c:	e3a03001 	mov	r3, #1, 0
    9270:	ea000000 	b	9278 <nrf_dump+0x2a0>
    9274:	e3a03000 	mov	r3, #0, 0
    9278:	e3530000 	cmp	r3, #0, 0
    927c:	1a000007 	bne	92a0 <nrf_dump+0x2c8>
    9280:	e59f3560 	ldr	r3, [pc, #1376]	; 97e8 <nrf_dump+0x810>
    9284:	e58d3000 	str	r3, [sp]
    9288:	e3a030e5 	mov	r3, #229, 0	; 0xe5
    928c:	e59f2558 	ldr	r2, [pc, #1368]	; 97ec <nrf_dump+0x814>
    9290:	e59f1558 	ldr	r1, [pc, #1368]	; 97f0 <nrf_dump+0x818>
    9294:	e59f0558 	ldr	r0, [pc, #1368]	; 97f4 <nrf_dump+0x81c>
    9298:	eb000efd 	bl	ce94 <printk>
    929c:	eb000f53 	bl	cff0 <clean_reboot>
    92a0:	e51b005c 	ldr	r0, [fp, #-92]	; 0xffffffa4
    92a4:	ebfffbca 	bl	81d4 <nrf_get_addr_nbytes>
    92a8:	e50b0034 	str	r0, [fp, #-52]	; 0xffffffcc
    92ac:	e51b005c 	ldr	r0, [fp, #-92]	; 0xffffffa4
    92b0:	ebfffbc7 	bl	81d4 <nrf_get_addr_nbytes>
    92b4:	e1a02000 	mov	r2, r0
    92b8:	e55b302d 	ldrb	r3, [fp, #-45]	; 0xffffffd3
    92bc:	e2833002 	add	r3, r3, #2, 0
    92c0:	e1520003 	cmp	r2, r3
    92c4:	0a000007 	beq	92e8 <nrf_dump+0x310>
    92c8:	e59f3528 	ldr	r3, [pc, #1320]	; 97f8 <nrf_dump+0x820>
    92cc:	e58d3000 	str	r3, [sp]
    92d0:	e3a030e7 	mov	r3, #231, 0	; 0xe7
    92d4:	e59f2510 	ldr	r2, [pc, #1296]	; 97ec <nrf_dump+0x814>
    92d8:	e59f1510 	ldr	r1, [pc, #1296]	; 97f0 <nrf_dump+0x818>
    92dc:	e59f0510 	ldr	r0, [pc, #1296]	; 97f4 <nrf_dump+0x81c>
    92e0:	eb000eeb 	bl	ce94 <printk>
    92e4:	eb000f41 	bl	cff0 <clean_reboot>
    92e8:	e59f04bc 	ldr	r0, [pc, #1212]	; 97ac <nrf_dump+0x7d4>
    92ec:	eb000ee8 	bl	ce94 <printk>
    92f0:	e51b1034 	ldr	r1, [fp, #-52]	; 0xffffffcc
    92f4:	e59f0500 	ldr	r0, [pc, #1280]	; 97fc <nrf_dump+0x824>
    92f8:	eb000ee5 	bl	ce94 <printk>
    92fc:	e3a01004 	mov	r1, #4, 0
    9300:	e51b005c 	ldr	r0, [fp, #-92]	; 0xffffffa4
    9304:	ebfffcdf 	bl	8688 <nrf_get8>
    9308:	e1a03000 	mov	r3, r0
    930c:	e54b302d 	strb	r3, [fp, #-45]	; 0xffffffd3
    9310:	e55b302d 	ldrb	r3, [fp, #-45]	; 0xffffffd3
    9314:	e1a03223 	lsr	r3, r3, #4
    9318:	e6ef3073 	uxtb	r3, r3
    931c:	e2832001 	add	r2, r3, #1, 0
    9320:	e1a03002 	mov	r3, r2
    9324:	e1a03283 	lsl	r3, r3, #5
    9328:	e0433002 	sub	r3, r3, r2
    932c:	e1a03103 	lsl	r3, r3, #2
    9330:	e0833002 	add	r3, r3, r2
    9334:	e1a03083 	lsl	r3, r3, #1
    9338:	e50b3038 	str	r3, [fp, #-56]	; 0xffffffc8
    933c:	e55b302d 	ldrb	r3, [fp, #-45]	; 0xffffffd3
    9340:	e203300f 	and	r3, r3, #15, 0
    9344:	e50b303c 	str	r3, [fp, #-60]	; 0xffffffc4
    9348:	e59f045c 	ldr	r0, [pc, #1116]	; 97ac <nrf_dump+0x7d4>
    934c:	eb000ed0 	bl	ce94 <printk>
    9350:	e55b102d 	ldrb	r1, [fp, #-45]	; 0xffffffd3
    9354:	e51b303c 	ldr	r3, [fp, #-60]	; 0xffffffc4
    9358:	e51b2038 	ldr	r2, [fp, #-56]	; 0xffffffc8
    935c:	e59f049c 	ldr	r0, [pc, #1180]	; 9800 <nrf_dump+0x828>
    9360:	eb000ecb 	bl	ce94 <printk>
    9364:	e3a01005 	mov	r1, #5, 0
    9368:	e51b005c 	ldr	r0, [fp, #-92]	; 0xffffffa4
    936c:	ebfffcc5 	bl	8688 <nrf_get8>
    9370:	e1a03000 	mov	r3, r0
    9374:	e54b302d 	strb	r3, [fp, #-45]	; 0xffffffd3
    9378:	e59f042c 	ldr	r0, [pc, #1068]	; 97ac <nrf_dump+0x7d4>
    937c:	eb000ec4 	bl	ce94 <printk>
    9380:	e55b102d 	ldrb	r1, [fp, #-45]	; 0xffffffd3
    9384:	e55b302d 	ldrb	r3, [fp, #-45]	; 0xffffffd3
    9388:	e2833e19 	add	r3, r3, #400	; 0x190
    938c:	e1a02003 	mov	r2, r3
    9390:	e59f046c 	ldr	r0, [pc, #1132]	; 9804 <nrf_dump+0x82c>
    9394:	eb000ebe 	bl	ce94 <printk>
    9398:	e3a01006 	mov	r1, #6, 0
    939c:	e51b005c 	ldr	r0, [fp, #-92]	; 0xffffffa4
    93a0:	ebfffcb8 	bl	8688 <nrf_get8>
    93a4:	e1a03000 	mov	r3, r0
    93a8:	e54b302d 	strb	r3, [fp, #-45]	; 0xffffffd3
    93ac:	e55b302d 	ldrb	r3, [fp, #-45]	; 0xffffffd3
    93b0:	e3a01005 	mov	r1, #5, 0
    93b4:	e1a00003 	mov	r0, r3
    93b8:	ebfffbc9 	bl	82e4 <bit_is_on>
    93bc:	e1a03000 	mov	r3, r0
    93c0:	e3530000 	cmp	r3, #0, 0
    93c4:	0a000007 	beq	93e8 <nrf_dump+0x410>
    93c8:	e59f3438 	ldr	r3, [pc, #1080]	; 9808 <nrf_dump+0x830>
    93cc:	e58d3000 	str	r3, [sp]
    93d0:	e3a030f4 	mov	r3, #244, 0	; 0xf4
    93d4:	e59f2410 	ldr	r2, [pc, #1040]	; 97ec <nrf_dump+0x814>
    93d8:	e59f1410 	ldr	r1, [pc, #1040]	; 97f0 <nrf_dump+0x818>
    93dc:	e59f0410 	ldr	r0, [pc, #1040]	; 97f4 <nrf_dump+0x81c>
    93e0:	eb000eab 	bl	ce94 <printk>
    93e4:	eb000f01 	bl	cff0 <clean_reboot>
    93e8:	e55b302d 	ldrb	r3, [fp, #-45]	; 0xffffffd3
    93ec:	e3a01003 	mov	r1, #3, 0
    93f0:	e1a00003 	mov	r0, r3
    93f4:	ebfffbba 	bl	82e4 <bit_is_on>
    93f8:	e1a03000 	mov	r3, r0
    93fc:	e3530000 	cmp	r3, #0, 0
    9400:	0a000001 	beq	940c <nrf_dump+0x434>
    9404:	e3a03002 	mov	r3, #2, 0
    9408:	ea000000 	b	9410 <nrf_dump+0x438>
    940c:	e3a03001 	mov	r3, #1, 0
    9410:	e50b3040 	str	r3, [fp, #-64]	; 0xffffffc0
    9414:	e55b302d 	ldrb	r3, [fp, #-45]	; 0xffffffd3
    9418:	e3a02002 	mov	r2, #2, 0
    941c:	e3a01001 	mov	r1, #1, 0
    9420:	e1a00003 	mov	r0, r3
    9424:	ebfffbe8 	bl	83cc <bits_get>
    9428:	e1a03000 	mov	r3, r0
    942c:	e3530003 	cmp	r3, #3, 0
    9430:	979ff103 	ldrls	pc, [pc, r3, lsl #2]
    9434:	ea00000f 	b	9478 <nrf_dump+0x4a0>
    9438:	00009448 	.word	0x00009448
    943c:	00009454 	.word	0x00009454
    9440:	00009460 	.word	0x00009460
    9444:	0000946c 	.word	0x0000946c
    9448:	e3e03011 	mvn	r3, #17, 0
    944c:	e50b3028 	str	r3, [fp, #-40]	; 0xffffffd8
    9450:	ea00000e 	b	9490 <nrf_dump+0x4b8>
    9454:	e3e0300b 	mvn	r3, #11, 0
    9458:	e50b3028 	str	r3, [fp, #-40]	; 0xffffffd8
    945c:	ea00000b 	b	9490 <nrf_dump+0x4b8>
    9460:	e3e03005 	mvn	r3, #5, 0
    9464:	e50b3028 	str	r3, [fp, #-40]	; 0xffffffd8
    9468:	ea000008 	b	9490 <nrf_dump+0x4b8>
    946c:	e3a03000 	mov	r3, #0, 0
    9470:	e50b3028 	str	r3, [fp, #-40]	; 0xffffffd8
    9474:	ea000005 	b	9490 <nrf_dump+0x4b8>
    9478:	e3a030fc 	mov	r3, #252, 0	; 0xfc
    947c:	e59f2368 	ldr	r2, [pc, #872]	; 97ec <nrf_dump+0x814>
    9480:	e59f1368 	ldr	r1, [pc, #872]	; 97f0 <nrf_dump+0x818>
    9484:	e59f0380 	ldr	r0, [pc, #896]	; 980c <nrf_dump+0x834>
    9488:	eb000e81 	bl	ce94 <printk>
    948c:	eb000ed7 	bl	cff0 <clean_reboot>
    9490:	e59f0314 	ldr	r0, [pc, #788]	; 97ac <nrf_dump+0x7d4>
    9494:	eb000e7e 	bl	ce94 <printk>
    9498:	e55b102d 	ldrb	r1, [fp, #-45]	; 0xffffffd3
    949c:	e51b3028 	ldr	r3, [fp, #-40]	; 0xffffffd8
    94a0:	e51b2040 	ldr	r2, [fp, #-64]	; 0xffffffc0
    94a4:	e59f0364 	ldr	r0, [pc, #868]	; 9810 <nrf_dump+0x838>
    94a8:	eb000e79 	bl	ce94 <printk>
    94ac:	e3a01007 	mov	r1, #7, 0
    94b0:	e51b005c 	ldr	r0, [fp, #-92]	; 0xffffffa4
    94b4:	ebfffc73 	bl	8688 <nrf_get8>
    94b8:	e1a03000 	mov	r3, r0
    94bc:	e54b302d 	strb	r3, [fp, #-45]	; 0xffffffd3
    94c0:	e59f02e4 	ldr	r0, [pc, #740]	; 97ac <nrf_dump+0x7d4>
    94c4:	eb000e72 	bl	ce94 <printk>
    94c8:	e55b502d 	ldrb	r5, [fp, #-45]	; 0xffffffd3
    94cc:	e55b302d 	ldrb	r3, [fp, #-45]	; 0xffffffd3
    94d0:	e3a01006 	mov	r1, #6, 0
    94d4:	e1a00003 	mov	r0, r3
    94d8:	ebfffb81 	bl	82e4 <bit_is_on>
    94dc:	e1a08000 	mov	r8, r0
    94e0:	e55b302d 	ldrb	r3, [fp, #-45]	; 0xffffffd3
    94e4:	e3a01005 	mov	r1, #5, 0
    94e8:	e1a00003 	mov	r0, r3
    94ec:	ebfffb7c 	bl	82e4 <bit_is_on>
    94f0:	e1a09000 	mov	r9, r0
    94f4:	e55b302d 	ldrb	r3, [fp, #-45]	; 0xffffffd3
    94f8:	e3a01004 	mov	r1, #4, 0
    94fc:	e1a00003 	mov	r0, r3
    9500:	ebfffb77 	bl	82e4 <bit_is_on>
    9504:	e1a06000 	mov	r6, r0
    9508:	e55b302d 	ldrb	r3, [fp, #-45]	; 0xffffffd3
    950c:	e3a02003 	mov	r2, #3, 0
    9510:	e3a01001 	mov	r1, #1, 0
    9514:	e1a00003 	mov	r0, r3
    9518:	ebfffbab 	bl	83cc <bits_get>
    951c:	e1a07000 	mov	r7, r0
    9520:	e55b302d 	ldrb	r3, [fp, #-45]	; 0xffffffd3
    9524:	e3a02003 	mov	r2, #3, 0
    9528:	e3a01001 	mov	r1, #1, 0
    952c:	e1a00003 	mov	r0, r3
    9530:	ebfffba5 	bl	83cc <bits_get>
    9534:	e1a03000 	mov	r3, r0
    9538:	e3530007 	cmp	r3, #7, 0
    953c:	1a000001 	bne	9548 <nrf_dump+0x570>
    9540:	e59f42cc 	ldr	r4, [pc, #716]	; 9814 <nrf_dump+0x83c>
    9544:	ea000000 	b	954c <nrf_dump+0x574>
    9548:	e59f42c8 	ldr	r4, [pc, #712]	; 9818 <nrf_dump+0x840>
    954c:	e55b302d 	ldrb	r3, [fp, #-45]	; 0xffffffd3
    9550:	e3a01000 	mov	r1, #0, 0
    9554:	e1a00003 	mov	r0, r3
    9558:	ebfffb61 	bl	82e4 <bit_is_on>
    955c:	e1a03000 	mov	r3, r0
    9560:	e58d300c 	str	r3, [sp, #12]
    9564:	e58d4008 	str	r4, [sp, #8]
    9568:	e58d7004 	str	r7, [sp, #4]
    956c:	e58d6000 	str	r6, [sp]
    9570:	e1a03009 	mov	r3, r9
    9574:	e1a02008 	mov	r2, r8
    9578:	e1a01005 	mov	r1, r5
    957c:	e59f0298 	ldr	r0, [pc, #664]	; 981c <nrf_dump+0x844>
    9580:	eb000e43 	bl	ce94 <printk>
    9584:	e3a02000 	mov	r2, #0, 0
    9588:	e3a03000 	mov	r3, #0, 0
    958c:	e14b24fc 	strd	r2, [fp, #-76]	; 0xffffffb4
    9590:	e24b204c 	sub	r2, fp, #76, 0	; 0x4c
    9594:	e51b3034 	ldr	r3, [fp, #-52]	; 0xffffffcc
    9598:	e3a01010 	mov	r1, #16, 0
    959c:	e51b005c 	ldr	r0, [fp, #-92]	; 0xffffffa4
    95a0:	ebfffc9c 	bl	8818 <nrf_getn>
    95a4:	e59f0200 	ldr	r0, [pc, #512]	; 97ac <nrf_dump+0x7d4>
    95a8:	eb000e39 	bl	ce94 <printk>
    95ac:	e14b24dc 	ldrd	r2, [fp, #-76]	; 0xffffffb4
    95b0:	e59f0268 	ldr	r0, [pc, #616]	; 9820 <nrf_dump+0x848>
    95b4:	eb000e36 	bl	ce94 <printk>
    95b8:	e3a01002 	mov	r1, #2, 0
    95bc:	e51b005c 	ldr	r0, [fp, #-92]	; 0xffffffa4
    95c0:	ebfffc30 	bl	8688 <nrf_get8>
    95c4:	e1a03000 	mov	r3, r0
    95c8:	e50b3044 	str	r3, [fp, #-68]	; 0xffffffbc
    95cc:	e3a03000 	mov	r3, #0, 0
    95d0:	e50b302c 	str	r3, [fp, #-44]	; 0xffffffd4
    95d4:	ea00002b 	b	9688 <nrf_dump+0x6b0>
    95d8:	e51b102c 	ldr	r1, [fp, #-44]	; 0xffffffd4
    95dc:	e51b0044 	ldr	r0, [fp, #-68]	; 0xffffffbc
    95e0:	ebfffb3f 	bl	82e4 <bit_is_on>
    95e4:	e1a03000 	mov	r3, r0
    95e8:	e3530000 	cmp	r3, #0, 0
    95ec:	0a000021 	beq	9678 <nrf_dump+0x6a0>
    95f0:	e3a02000 	mov	r2, #0, 0
    95f4:	e3a03000 	mov	r3, #0, 0
    95f8:	e14b25f4 	strd	r2, [fp, #-84]	; 0xffffffac
    95fc:	e51b302c 	ldr	r3, [fp, #-44]	; 0xffffffd4
    9600:	e6ef3073 	uxtb	r3, r3
    9604:	e283300a 	add	r3, r3, #10, 0
    9608:	e6ef1073 	uxtb	r1, r3
    960c:	e24b2054 	sub	r2, fp, #84, 0	; 0x54
    9610:	e51b3034 	ldr	r3, [fp, #-52]	; 0xffffffcc
    9614:	e51b005c 	ldr	r0, [fp, #-92]	; 0xffffffa4
    9618:	ebfffc7e 	bl	8818 <nrf_getn>
    961c:	e59f0188 	ldr	r0, [pc, #392]	; 97ac <nrf_dump+0x7d4>
    9620:	eb000e1b 	bl	ce94 <printk>
    9624:	e14b25d4 	ldrd	r2, [fp, #-84]	; 0xffffffac
    9628:	e51b102c 	ldr	r1, [fp, #-44]	; 0xffffffd4
    962c:	e59f01f0 	ldr	r0, [pc, #496]	; 9824 <nrf_dump+0x84c>
    9630:	eb000e17 	bl	ce94 <printk>
    9634:	e51b302c 	ldr	r3, [fp, #-44]	; 0xffffffd4
    9638:	e6ef3073 	uxtb	r3, r3
    963c:	e2833011 	add	r3, r3, #17, 0
    9640:	e6ef3073 	uxtb	r3, r3
    9644:	e1a01003 	mov	r1, r3
    9648:	e51b005c 	ldr	r0, [fp, #-92]	; 0xffffffa4
    964c:	ebfffc0d 	bl	8688 <nrf_get8>
    9650:	e1a03000 	mov	r3, r0
    9654:	e54b302d 	strb	r3, [fp, #-45]	; 0xffffffd3
    9658:	e59f014c 	ldr	r0, [pc, #332]	; 97ac <nrf_dump+0x7d4>
    965c:	eb000e0c 	bl	ce94 <printk>
    9660:	e55b202d 	ldrb	r2, [fp, #-45]	; 0xffffffd3
    9664:	e55b302d 	ldrb	r3, [fp, #-45]	; 0xffffffd3
    9668:	e51b102c 	ldr	r1, [fp, #-44]	; 0xffffffd4
    966c:	e59f01b4 	ldr	r0, [pc, #436]	; 9828 <nrf_dump+0x850>
    9670:	eb000e07 	bl	ce94 <printk>
    9674:	ea000000 	b	967c <nrf_dump+0x6a4>
    9678:	e320f000 	nop	{0}
    967c:	e51b302c 	ldr	r3, [fp, #-44]	; 0xffffffd4
    9680:	e2833001 	add	r3, r3, #1, 0
    9684:	e50b302c 	str	r3, [fp, #-44]	; 0xffffffd4
    9688:	e51b302c 	ldr	r3, [fp, #-44]	; 0xffffffd4
    968c:	e3530005 	cmp	r3, #5, 0
    9690:	9affffd0 	bls	95d8 <nrf_dump+0x600>
    9694:	e3a01017 	mov	r1, #23, 0
    9698:	e51b005c 	ldr	r0, [fp, #-92]	; 0xffffffa4
    969c:	ebfffbf9 	bl	8688 <nrf_get8>
    96a0:	e1a03000 	mov	r3, r0
    96a4:	e54b302d 	strb	r3, [fp, #-45]	; 0xffffffd3
    96a8:	e59f00fc 	ldr	r0, [pc, #252]	; 97ac <nrf_dump+0x7d4>
    96ac:	eb000df8 	bl	ce94 <printk>
    96b0:	e55b402d 	ldrb	r4, [fp, #-45]	; 0xffffffd3
    96b4:	e55b302d 	ldrb	r3, [fp, #-45]	; 0xffffffd3
    96b8:	e3a01005 	mov	r1, #5, 0
    96bc:	e1a00003 	mov	r0, r3
    96c0:	ebfffb07 	bl	82e4 <bit_is_on>
    96c4:	e1a06000 	mov	r6, r0
    96c8:	e55b302d 	ldrb	r3, [fp, #-45]	; 0xffffffd3
    96cc:	e3a01004 	mov	r1, #4, 0
    96d0:	e1a00003 	mov	r0, r3
    96d4:	ebfffb02 	bl	82e4 <bit_is_on>
    96d8:	e1a07000 	mov	r7, r0
    96dc:	e55b302d 	ldrb	r3, [fp, #-45]	; 0xffffffd3
    96e0:	e3a01001 	mov	r1, #1, 0
    96e4:	e1a00003 	mov	r0, r3
    96e8:	ebfffafd 	bl	82e4 <bit_is_on>
    96ec:	e1a05000 	mov	r5, r0
    96f0:	e55b302d 	ldrb	r3, [fp, #-45]	; 0xffffffd3
    96f4:	e3a01000 	mov	r1, #0, 0
    96f8:	e1a00003 	mov	r0, r3
    96fc:	ebfffaf8 	bl	82e4 <bit_is_on>
    9700:	e1a03000 	mov	r3, r0
    9704:	e58d3004 	str	r3, [sp, #4]
    9708:	e58d5000 	str	r5, [sp]
    970c:	e1a03007 	mov	r3, r7
    9710:	e1a02006 	mov	r2, r6
    9714:	e1a01004 	mov	r1, r4
    9718:	e59f010c 	ldr	r0, [pc, #268]	; 982c <nrf_dump+0x854>
    971c:	eb000ddc 	bl	ce94 <printk>
    9720:	e3a0101d 	mov	r1, #29, 0
    9724:	e51b005c 	ldr	r0, [fp, #-92]	; 0xffffffa4
    9728:	ebfffbd6 	bl	8688 <nrf_get8>
    972c:	e1a03000 	mov	r3, r0
    9730:	e3530000 	cmp	r3, #0, 0
    9734:	0a000007 	beq	9758 <nrf_dump+0x780>
    9738:	e59f30f0 	ldr	r3, [pc, #240]	; 9830 <nrf_dump+0x858>
    973c:	e58d3000 	str	r3, [sp]
    9740:	e59f30ec 	ldr	r3, [pc, #236]	; 9834 <nrf_dump+0x85c>
    9744:	e59f20a0 	ldr	r2, [pc, #160]	; 97ec <nrf_dump+0x814>
    9748:	e59f10a0 	ldr	r1, [pc, #160]	; 97f0 <nrf_dump+0x818>
    974c:	e59f00a0 	ldr	r0, [pc, #160]	; 97f4 <nrf_dump+0x81c>
    9750:	eb000dcf 	bl	ce94 <printk>
    9754:	eb000e25 	bl	cff0 <clean_reboot>
    9758:	e3a0101c 	mov	r1, #28, 0
    975c:	e51b005c 	ldr	r0, [fp, #-92]	; 0xffffffa4
    9760:	ebfffbc8 	bl	8688 <nrf_get8>
    9764:	e1a03000 	mov	r3, r0
    9768:	e3530000 	cmp	r3, #0, 0
    976c:	0a000007 	beq	9790 <nrf_dump+0x7b8>
    9770:	e59f30c0 	ldr	r3, [pc, #192]	; 9838 <nrf_dump+0x860>
    9774:	e58d3000 	str	r3, [sp]
    9778:	e59f30bc 	ldr	r3, [pc, #188]	; 983c <nrf_dump+0x864>
    977c:	e59f2068 	ldr	r2, [pc, #104]	; 97ec <nrf_dump+0x814>
    9780:	e59f1068 	ldr	r1, [pc, #104]	; 97f0 <nrf_dump+0x818>
    9784:	e59f0068 	ldr	r0, [pc, #104]	; 97f4 <nrf_dump+0x81c>
    9788:	eb000dc1 	bl	ce94 <printk>
    978c:	eb000e17 	bl	cff0 <clean_reboot>
    9790:	e59f0014 	ldr	r0, [pc, #20]	; 97ac <nrf_dump+0x7d4>
    9794:	eb000dbe 	bl	ce94 <printk>
    9798:	e59f0010 	ldr	r0, [pc, #16]	; 97b0 <nrf_dump+0x7d8>
    979c:	eb000dbc 	bl	ce94 <printk>
    97a0:	e320f000 	nop	{0}
    97a4:	e24bd01c 	sub	sp, fp, #28, 0
    97a8:	e8bd8bf0 	pop	{r4, r5, r6, r7, r8, r9, fp, pc}
    97ac:	0000e308 	.word	0x0000e308
    97b0:	0000e338 	.word	0x0000e338
    97b4:	0000e368 	.word	0x0000e368
    97b8:	0000e370 	.word	0x0000e370
    97bc:	0000e378 	.word	0x0000e378
    97c0:	0000e3b0 	.word	0x0000e3b0
    97c4:	0000e3e0 	.word	0x0000e3e0
    97c8:	0000e3f0 	.word	0x0000e3f0
    97cc:	0000e414 	.word	0x0000e414
    97d0:	0000e424 	.word	0x0000e424
    97d4:	0000e438 	.word	0x0000e438
    97d8:	0000e43c 	.word	0x0000e43c
    97dc:	0000e450 	.word	0x0000e450
    97e0:	0000e464 	.word	0x0000e464
    97e4:	0000e474 	.word	0x0000e474
    97e8:	0000e480 	.word	0x0000e480
    97ec:	0000e844 	.word	0x0000e844
    97f0:	0000e1c0 	.word	0x0000e1c0
    97f4:	0000e15c 	.word	0x0000e15c
    97f8:	0000e494 	.word	0x0000e494
    97fc:	0000e4b8 	.word	0x0000e4b8
    9800:	0000e4d8 	.word	0x0000e4d8
    9804:	0000e510 	.word	0x0000e510
    9808:	0000e528 	.word	0x0000e528
    980c:	0000e538 	.word	0x0000e538
    9810:	0000e558 	.word	0x0000e558
    9814:	0000e588 	.word	0x0000e588
    9818:	0000e590 	.word	0x0000e590
    981c:	0000e59c 	.word	0x0000e59c
    9820:	0000e5e8 	.word	0x0000e5e8
    9824:	0000e5fc 	.word	0x0000e5fc
    9828:	0000e614 	.word	0x0000e614
    982c:	0000e644 	.word	0x0000e644
    9830:	0000e68c 	.word	0x0000e68c
    9834:	00000125 	.word	0x00000125
    9838:	0000e6ac 	.word	0x0000e6ac
    983c:	00000126 	.word	0x00000126

00009840 <kbytes_per_sec>:
    9840:	e92d4800 	push	{fp, lr}
    9844:	e28db004 	add	fp, sp, #4, 0
    9848:	e24dd020 	sub	sp, sp, #32, 0
    984c:	e50b0018 	str	r0, [fp, #-24]	; 0xffffffe8
    9850:	e50b101c 	str	r1, [fp, #-28]	; 0xffffffe4
    9854:	e50b2020 	str	r2, [fp, #-32]	; 0xffffffe0
    9858:	e51b3020 	ldr	r3, [fp, #-32]	; 0xffffffe0
    985c:	e59f2090 	ldr	r2, [pc, #144]	; 98f4 <kbytes_per_sec+0xb4>
    9860:	e0832392 	umull	r2, r3, r2, r3
    9864:	e1a03323 	lsr	r3, r3, #6
    9868:	e50b3008 	str	r3, [fp, #-8]
    986c:	e51b201c 	ldr	r2, [fp, #-28]	; 0xffffffe4
    9870:	e1a03002 	mov	r3, r2
    9874:	e1a03283 	lsl	r3, r3, #5
    9878:	e0433002 	sub	r3, r3, r2
    987c:	e1a03103 	lsl	r3, r3, #2
    9880:	e0833002 	add	r3, r3, r2
    9884:	e1a03183 	lsl	r3, r3, #3
    9888:	e51b1008 	ldr	r1, [fp, #-8]
    988c:	e1a00003 	mov	r0, r3
    9890:	eb000b65 	bl	c62c <__udivsi3>
    9894:	e1a03000 	mov	r3, r0
    9898:	e50b300c 	str	r3, [fp, #-12]
    989c:	e51b300c 	ldr	r3, [fp, #-12]
    98a0:	e59f204c 	ldr	r2, [pc, #76]	; 98f4 <kbytes_per_sec+0xb4>
    98a4:	e0832392 	umull	r2, r3, r2, r3
    98a8:	e1a00323 	lsr	r0, r3, #6
    98ac:	e51b100c 	ldr	r1, [fp, #-12]
    98b0:	e59f303c 	ldr	r3, [pc, #60]	; 98f4 <kbytes_per_sec+0xb4>
    98b4:	e0832193 	umull	r2, r3, r3, r1
    98b8:	e1a02323 	lsr	r2, r3, #6
    98bc:	e1a03002 	mov	r3, r2
    98c0:	e1a03283 	lsl	r3, r3, #5
    98c4:	e0433002 	sub	r3, r3, r2
    98c8:	e1a03103 	lsl	r3, r3, #2
    98cc:	e0833002 	add	r3, r3, r2
    98d0:	e1a03183 	lsl	r3, r3, #3
    98d4:	e0412003 	sub	r2, r1, r3
    98d8:	e51b3018 	ldr	r3, [fp, #-24]	; 0xffffffe8
    98dc:	e5830000 	str	r0, [r3]
    98e0:	e51b3018 	ldr	r3, [fp, #-24]	; 0xffffffe8
    98e4:	e5832004 	str	r2, [r3, #4]
    98e8:	e51b0018 	ldr	r0, [fp, #-24]	; 0xffffffe8
    98ec:	e24bd004 	sub	sp, fp, #4, 0
    98f0:	e8bd8800 	pop	{fp, pc}
    98f4:	10624dd3 	.word	0x10624dd3

000098f8 <usec_to_sec>:
    98f8:	e52db004 	push	{fp}		; (str fp, [sp, #-4]!)
    98fc:	e28db000 	add	fp, sp, #0, 0
    9900:	e24dd00c 	sub	sp, sp, #12, 0
    9904:	e50b0008 	str	r0, [fp, #-8]
    9908:	e51b3008 	ldr	r3, [fp, #-8]
    990c:	e59f2014 	ldr	r2, [pc, #20]	; 9928 <usec_to_sec+0x30>
    9910:	e0832392 	umull	r2, r3, r2, r3
    9914:	e1a03923 	lsr	r3, r3, #18
    9918:	e1a00003 	mov	r0, r3
    991c:	e28bd000 	add	sp, fp, #0, 0
    9920:	e49db004 	pop	{fp}		; (ldr fp, [sp], #4)
    9924:	e12fff1e 	bx	lr
    9928:	431bde83 	.word	0x431bde83

0000992c <usec_to_msec>:
    992c:	e52db004 	push	{fp}		; (str fp, [sp, #-4]!)
    9930:	e28db000 	add	fp, sp, #0, 0
    9934:	e24dd014 	sub	sp, sp, #20, 0
    9938:	e50b0010 	str	r0, [fp, #-16]
    993c:	e51b0010 	ldr	r0, [fp, #-16]
    9940:	e59f304c 	ldr	r3, [pc, #76]	; 9994 <usec_to_msec+0x68>
    9944:	e0832093 	umull	r2, r3, r3, r0
    9948:	e1a01923 	lsr	r1, r3, #18
    994c:	e1a02001 	mov	r2, r1
    9950:	e1a02282 	lsl	r2, r2, #5
    9954:	e0422001 	sub	r2, r2, r1
    9958:	e1a03302 	lsl	r3, r2, #6
    995c:	e0433002 	sub	r3, r3, r2
    9960:	e1a03183 	lsl	r3, r3, #3
    9964:	e0833001 	add	r3, r3, r1
    9968:	e1a03303 	lsl	r3, r3, #6
    996c:	e0403003 	sub	r3, r0, r3
    9970:	e50b3008 	str	r3, [fp, #-8]
    9974:	e51b3008 	ldr	r3, [fp, #-8]
    9978:	e59f2018 	ldr	r2, [pc, #24]	; 9998 <usec_to_msec+0x6c>
    997c:	e0832392 	umull	r2, r3, r2, r3
    9980:	e1a03323 	lsr	r3, r3, #6
    9984:	e1a00003 	mov	r0, r3
    9988:	e28bd000 	add	sp, fp, #0, 0
    998c:	e49db004 	pop	{fp}		; (ldr fp, [sp], #4)
    9990:	e12fff1e 	bx	lr
    9994:	431bde83 	.word	0x431bde83
    9998:	10624dd3 	.word	0x10624dd3

0000999c <usec_to_usec>:
    999c:	e52db004 	push	{fp}		; (str fp, [sp, #-4]!)
    99a0:	e28db000 	add	fp, sp, #0, 0
    99a4:	e24dd00c 	sub	sp, sp, #12, 0
    99a8:	e50b0008 	str	r0, [fp, #-8]
    99ac:	e51b1008 	ldr	r1, [fp, #-8]
    99b0:	e59f3034 	ldr	r3, [pc, #52]	; 99ec <usec_to_usec+0x50>
    99b4:	e0832193 	umull	r2, r3, r3, r1
    99b8:	e1a02323 	lsr	r2, r3, #6
    99bc:	e1a03002 	mov	r3, r2
    99c0:	e1a03283 	lsl	r3, r3, #5
    99c4:	e0433002 	sub	r3, r3, r2
    99c8:	e1a03103 	lsl	r3, r3, #2
    99cc:	e0833002 	add	r3, r3, r2
    99d0:	e1a03183 	lsl	r3, r3, #3
    99d4:	e0412003 	sub	r2, r1, r3
    99d8:	e1a03002 	mov	r3, r2
    99dc:	e1a00003 	mov	r0, r3
    99e0:	e28bd000 	add	sp, fp, #0, 0
    99e4:	e49db004 	pop	{fp}		; (ldr fp, [sp], #4)
    99e8:	e12fff1e 	bx	lr
    99ec:	10624dd3 	.word	0x10624dd3

000099f0 <pretty_time_mk>:
    99f0:	e92d4830 	push	{r4, r5, fp, lr}
    99f4:	e28db00c 	add	fp, sp, #12, 0
    99f8:	e24dd018 	sub	sp, sp, #24, 0
    99fc:	e50b0020 	str	r0, [fp, #-32]	; 0xffffffe0
    9a00:	e50b1024 	str	r1, [fp, #-36]	; 0xffffffdc
    9a04:	eb000e12 	bl	d254 <timer_get_usec>
    9a08:	e1a02000 	mov	r2, r0
    9a0c:	e51b3024 	ldr	r3, [fp, #-36]	; 0xffffffdc
    9a10:	e0423003 	sub	r3, r2, r3
    9a14:	e50b3010 	str	r3, [fp, #-16]
    9a18:	e51b0010 	ldr	r0, [fp, #-16]
    9a1c:	ebffffb5 	bl	98f8 <usec_to_sec>
    9a20:	e1a05000 	mov	r5, r0
    9a24:	e51b0010 	ldr	r0, [fp, #-16]
    9a28:	ebffffbf 	bl	992c <usec_to_msec>
    9a2c:	e1a04000 	mov	r4, r0
    9a30:	e51b0010 	ldr	r0, [fp, #-16]
    9a34:	ebffffd8 	bl	999c <usec_to_usec>
    9a38:	e1a02000 	mov	r2, r0
    9a3c:	e51b3020 	ldr	r3, [fp, #-32]	; 0xffffffe0
    9a40:	e5835000 	str	r5, [r3]
    9a44:	e51b3020 	ldr	r3, [fp, #-32]	; 0xffffffe0
    9a48:	e5834004 	str	r4, [r3, #4]
    9a4c:	e51b3020 	ldr	r3, [fp, #-32]	; 0xffffffe0
    9a50:	e5832008 	str	r2, [r3, #8]
    9a54:	e51b0020 	ldr	r0, [fp, #-32]	; 0xffffffe0
    9a58:	e24bd00c 	sub	sp, fp, #12, 0
    9a5c:	e8bd8830 	pop	{r4, r5, fp, pc}

00009a60 <pretty_time_print>:
    9a60:	e92d4800 	push	{fp, lr}
    9a64:	e28db004 	add	fp, sp, #4, 0
    9a68:	e24dd010 	sub	sp, sp, #16, 0
    9a6c:	e24b3010 	sub	r3, fp, #16, 0
    9a70:	e8830007 	stm	r3, {r0, r1, r2}
    9a74:	e51b3010 	ldr	r3, [fp, #-16]
    9a78:	e3530000 	cmp	r3, #0, 0
    9a7c:	0a000003 	beq	9a90 <pretty_time_print+0x30>
    9a80:	e51b3010 	ldr	r3, [fp, #-16]
    9a84:	e1a01003 	mov	r1, r3
    9a88:	e59f0044 	ldr	r0, [pc, #68]	; 9ad4 <pretty_time_print+0x74>
    9a8c:	eb000d00 	bl	ce94 <printk>
    9a90:	e51b300c 	ldr	r3, [fp, #-12]
    9a94:	e3530000 	cmp	r3, #0, 0
    9a98:	0a000003 	beq	9aac <pretty_time_print+0x4c>
    9a9c:	e51b300c 	ldr	r3, [fp, #-12]
    9aa0:	e1a01003 	mov	r1, r3
    9aa4:	e59f002c 	ldr	r0, [pc, #44]	; 9ad8 <pretty_time_print+0x78>
    9aa8:	eb000cf9 	bl	ce94 <printk>
    9aac:	e51b3008 	ldr	r3, [fp, #-8]
    9ab0:	e3530000 	cmp	r3, #0, 0
    9ab4:	0a000003 	beq	9ac8 <pretty_time_print+0x68>
    9ab8:	e51b3008 	ldr	r3, [fp, #-8]
    9abc:	e1a01003 	mov	r1, r3
    9ac0:	e59f0014 	ldr	r0, [pc, #20]	; 9adc <pretty_time_print+0x7c>
    9ac4:	eb000cf2 	bl	ce94 <printk>
    9ac8:	e320f000 	nop	{0}
    9acc:	e24bd004 	sub	sp, fp, #4, 0
    9ad0:	e8bd8800 	pop	{fp, pc}
    9ad4:	0000e6cc 	.word	0x0000e6cc
    9ad8:	0000e6d4 	.word	0x0000e6d4
    9adc:	0000e6dc 	.word	0x0000e6dc

00009ae0 <pretty_print_usec>:
    9ae0:	e92d4800 	push	{fp, lr}
    9ae4:	e28db004 	add	fp, sp, #4, 0
    9ae8:	e24dd018 	sub	sp, sp, #24, 0
    9aec:	e50b0018 	str	r0, [fp, #-24]	; 0xffffffe8
    9af0:	e24b3010 	sub	r3, fp, #16, 0
    9af4:	e51b1018 	ldr	r1, [fp, #-24]	; 0xffffffe8
    9af8:	e1a00003 	mov	r0, r3
    9afc:	ebffffbb 	bl	99f0 <pretty_time_mk>
    9b00:	e24b3010 	sub	r3, fp, #16, 0
    9b04:	e8930007 	ldm	r3, {r0, r1, r2}
    9b08:	ebffffd4 	bl	9a60 <pretty_time_print>
    9b0c:	e320f000 	nop	{0}
    9b10:	e24bd004 	sub	sp, fp, #4, 0
    9b14:	e8bd8800 	pop	{fp, pc}

00009b18 <nrf_stat_print>:
    9b18:	e92d000e 	push	{r1, r2, r3}
    9b1c:	e92d4800 	push	{fp, lr}
    9b20:	e28db004 	add	fp, sp, #4, 0
    9b24:	e24dd034 	sub	sp, sp, #52, 0	; 0x34
    9b28:	e50b0034 	str	r0, [fp, #-52]	; 0xffffffcc
    9b2c:	e51b3034 	ldr	r3, [fp, #-52]	; 0xffffffcc
    9b30:	e2833a02 	add	r3, r3, #8192	; 0x2000
    9b34:	e593303c 	ldr	r3, [r3, #60]	; 0x3c
    9b38:	e50b300c 	str	r3, [fp, #-12]
    9b3c:	eb000dc4 	bl	d254 <timer_get_usec>
    9b40:	e1a02000 	mov	r2, r0
    9b44:	e51b300c 	ldr	r3, [fp, #-12]
    9b48:	e0423003 	sub	r3, r2, r3
    9b4c:	e50b3010 	str	r3, [fp, #-16]
    9b50:	e59f01a0 	ldr	r0, [pc, #416]	; 9cf8 <nrf_stat_print+0x1e0>
    9b54:	eb000cce 	bl	ce94 <printk>
    9b58:	e28b3008 	add	r3, fp, #8, 0
    9b5c:	e50b301c 	str	r3, [fp, #-28]	; 0xffffffe4
    9b60:	e51b101c 	ldr	r1, [fp, #-28]	; 0xffffffe4
    9b64:	e59b0004 	ldr	r0, [fp, #4]
    9b68:	eb000bee 	bl	cb28 <vprintk>
    9b6c:	e59f0188 	ldr	r0, [pc, #392]	; 9cfc <nrf_stat_print+0x1e4>
    9b70:	eb000cc7 	bl	ce94 <printk>
    9b74:	e59f017c 	ldr	r0, [pc, #380]	; 9cf8 <nrf_stat_print+0x1e0>
    9b78:	eb000cc5 	bl	ce94 <printk>
    9b7c:	e59f017c 	ldr	r0, [pc, #380]	; 9d00 <nrf_stat_print+0x1e8>
    9b80:	eb000cc3 	bl	ce94 <printk>
    9b84:	e51b000c 	ldr	r0, [fp, #-12]
    9b88:	ebffffd4 	bl	9ae0 <pretty_print_usec>
    9b8c:	e59f0170 	ldr	r0, [pc, #368]	; 9d04 <nrf_stat_print+0x1ec>
    9b90:	eb000cbf 	bl	ce94 <printk>
    9b94:	e51b3034 	ldr	r3, [fp, #-52]	; 0xffffffcc
    9b98:	e2833a02 	add	r3, r3, #8192	; 0x2000
    9b9c:	e5933040 	ldr	r3, [r3, #64]	; 0x40
    9ba0:	e50b3014 	str	r3, [fp, #-20]	; 0xffffffec
    9ba4:	e51b3014 	ldr	r3, [fp, #-20]	; 0xffffffec
    9ba8:	e3530000 	cmp	r3, #0, 0
    9bac:	0a000004 	beq	9bc4 <nrf_stat_print+0xac>
    9bb0:	e59f0140 	ldr	r0, [pc, #320]	; 9cf8 <nrf_stat_print+0x1e0>
    9bb4:	eb000cb6 	bl	ce94 <printk>
    9bb8:	e51b1014 	ldr	r1, [fp, #-20]	; 0xffffffec
    9bbc:	e59f0144 	ldr	r0, [pc, #324]	; 9d08 <nrf_stat_print+0x1f0>
    9bc0:	eb000cb3 	bl	ce94 <printk>
    9bc4:	e51b3034 	ldr	r3, [fp, #-52]	; 0xffffffcc
    9bc8:	e2833a02 	add	r3, r3, #8192	; 0x2000
    9bcc:	e5933044 	ldr	r3, [r3, #68]	; 0x44
    9bd0:	e50b3018 	str	r3, [fp, #-24]	; 0xffffffe8
    9bd4:	e51b3018 	ldr	r3, [fp, #-24]	; 0xffffffe8
    9bd8:	e3530000 	cmp	r3, #0, 0
    9bdc:	0a00000b 	beq	9c10 <nrf_stat_print+0xf8>
    9be0:	e24b3024 	sub	r3, fp, #36, 0	; 0x24
    9be4:	e51b2010 	ldr	r2, [fp, #-16]
    9be8:	e51b1018 	ldr	r1, [fp, #-24]	; 0xffffffe8
    9bec:	e1a00003 	mov	r0, r3
    9bf0:	ebffff12 	bl	9840 <kbytes_per_sec>
    9bf4:	e59f00fc 	ldr	r0, [pc, #252]	; 9cf8 <nrf_stat_print+0x1e0>
    9bf8:	eb000ca5 	bl	ce94 <printk>
    9bfc:	e51b2024 	ldr	r2, [fp, #-36]	; 0xffffffdc
    9c00:	e51b3020 	ldr	r3, [fp, #-32]	; 0xffffffe0
    9c04:	e51b1018 	ldr	r1, [fp, #-24]	; 0xffffffe8
    9c08:	e59f00fc 	ldr	r0, [pc, #252]	; 9d0c <nrf_stat_print+0x1f4>
    9c0c:	eb000ca0 	bl	ce94 <printk>
    9c10:	e51b3034 	ldr	r3, [fp, #-52]	; 0xffffffcc
    9c14:	e2833a02 	add	r3, r3, #8192	; 0x2000
    9c18:	e5933048 	ldr	r3, [r3, #72]	; 0x48
    9c1c:	e3530000 	cmp	r3, #0, 0
    9c20:	0a000005 	beq	9c3c <nrf_stat_print+0x124>
    9c24:	e51b3034 	ldr	r3, [fp, #-52]	; 0xffffffcc
    9c28:	e2833a02 	add	r3, r3, #8192	; 0x2000
    9c2c:	e5933048 	ldr	r3, [r3, #72]	; 0x48
    9c30:	e1a01003 	mov	r1, r3
    9c34:	e59f00d4 	ldr	r0, [pc, #212]	; 9d10 <nrf_stat_print+0x1f8>
    9c38:	eb000c95 	bl	ce94 <printk>
    9c3c:	e51b3034 	ldr	r3, [fp, #-52]	; 0xffffffcc
    9c40:	e2833a02 	add	r3, r3, #8192	; 0x2000
    9c44:	e593304c 	ldr	r3, [r3, #76]	; 0x4c
    9c48:	e3530000 	cmp	r3, #0, 0
    9c4c:	0a000005 	beq	9c68 <nrf_stat_print+0x150>
    9c50:	e51b3034 	ldr	r3, [fp, #-52]	; 0xffffffcc
    9c54:	e2833a02 	add	r3, r3, #8192	; 0x2000
    9c58:	e593304c 	ldr	r3, [r3, #76]	; 0x4c
    9c5c:	e1a01003 	mov	r1, r3
    9c60:	e59f00ac 	ldr	r0, [pc, #172]	; 9d14 <nrf_stat_print+0x1fc>
    9c64:	eb000c8a 	bl	ce94 <printk>
    9c68:	e51b3034 	ldr	r3, [fp, #-52]	; 0xffffffcc
    9c6c:	e2833a02 	add	r3, r3, #8192	; 0x2000
    9c70:	e5933050 	ldr	r3, [r3, #80]	; 0x50
    9c74:	e50b3014 	str	r3, [fp, #-20]	; 0xffffffec
    9c78:	e51b3014 	ldr	r3, [fp, #-20]	; 0xffffffec
    9c7c:	e3530000 	cmp	r3, #0, 0
    9c80:	0a000004 	beq	9c98 <nrf_stat_print+0x180>
    9c84:	e59f006c 	ldr	r0, [pc, #108]	; 9cf8 <nrf_stat_print+0x1e0>
    9c88:	eb000c81 	bl	ce94 <printk>
    9c8c:	e51b1014 	ldr	r1, [fp, #-20]	; 0xffffffec
    9c90:	e59f0080 	ldr	r0, [pc, #128]	; 9d18 <nrf_stat_print+0x200>
    9c94:	eb000c7e 	bl	ce94 <printk>
    9c98:	e51b3034 	ldr	r3, [fp, #-52]	; 0xffffffcc
    9c9c:	e2833a02 	add	r3, r3, #8192	; 0x2000
    9ca0:	e5933054 	ldr	r3, [r3, #84]	; 0x54
    9ca4:	e50b3018 	str	r3, [fp, #-24]	; 0xffffffe8
    9ca8:	e51b3018 	ldr	r3, [fp, #-24]	; 0xffffffe8
    9cac:	e3530000 	cmp	r3, #0, 0
    9cb0:	0a00000b 	beq	9ce4 <nrf_stat_print+0x1cc>
    9cb4:	e24b302c 	sub	r3, fp, #44, 0	; 0x2c
    9cb8:	e51b2010 	ldr	r2, [fp, #-16]
    9cbc:	e51b1018 	ldr	r1, [fp, #-24]	; 0xffffffe8
    9cc0:	e1a00003 	mov	r0, r3
    9cc4:	ebfffedd 	bl	9840 <kbytes_per_sec>
    9cc8:	e59f0028 	ldr	r0, [pc, #40]	; 9cf8 <nrf_stat_print+0x1e0>
    9ccc:	eb000c70 	bl	ce94 <printk>
    9cd0:	e51b202c 	ldr	r2, [fp, #-44]	; 0xffffffd4
    9cd4:	e51b3028 	ldr	r3, [fp, #-40]	; 0xffffffd8
    9cd8:	e51b1018 	ldr	r1, [fp, #-24]	; 0xffffffe8
    9cdc:	e59f0038 	ldr	r0, [pc, #56]	; 9d1c <nrf_stat_print+0x204>
    9ce0:	eb000c6b 	bl	ce94 <printk>
    9ce4:	e320f000 	nop	{0}
    9ce8:	e24bd004 	sub	sp, fp, #4, 0
    9cec:	e8bd4800 	pop	{fp, lr}
    9cf0:	e28dd00c 	add	sp, sp, #12, 0
    9cf4:	e12fff1e 	bx	lr
    9cf8:	0000e308 	.word	0x0000e308
    9cfc:	0000e438 	.word	0x0000e438
    9d00:	0000e6e4 	.word	0x0000e6e4
    9d04:	0000e6f4 	.word	0x0000e6f4
    9d08:	0000e6f8 	.word	0x0000e6f8
    9d0c:	0000e714 	.word	0x0000e714
    9d10:	0000e744 	.word	0x0000e744
    9d14:	0000e758 	.word	0x0000e758
    9d18:	0000e768 	.word	0x0000e768
    9d1c:	0000e788 	.word	0x0000e788

00009d20 <cpsr_get>:
    9d20:	e52db004 	push	{fp}		; (str fp, [sp, #-4]!)
    9d24:	e28db000 	add	fp, sp, #0, 0
    9d28:	e24dd00c 	sub	sp, sp, #12, 0
    9d2c:	e10f3000 	mrs	r3, CPSR
    9d30:	e50b3008 	str	r3, [fp, #-8]
    9d34:	e51b3008 	ldr	r3, [fp, #-8]
    9d38:	e1a00003 	mov	r0, r3
    9d3c:	e28bd000 	add	sp, fp, #0, 0
    9d40:	e49db004 	pop	{fp}		; (ldr fp, [sp], #4)
    9d44:	e12fff1e 	bx	lr

00009d48 <cpsr_int_enabled>:
    9d48:	e92d4800 	push	{fp, lr}
    9d4c:	e28db004 	add	fp, sp, #4, 0
    9d50:	ebfffff2 	bl	9d20 <cpsr_get>
    9d54:	e1a03000 	mov	r3, r0
    9d58:	e1a033a3 	lsr	r3, r3, #7
    9d5c:	e2033001 	and	r3, r3, #1, 0
    9d60:	e3530000 	cmp	r3, #0, 0
    9d64:	03a03001 	moveq	r3, #1, 0
    9d68:	13a03000 	movne	r3, #0, 0
    9d6c:	e6ef3073 	uxtb	r3, r3
    9d70:	e1a00003 	mov	r0, r3
    9d74:	e8bd8800 	pop	{fp, pc}

00009d78 <cq_empty>:
    9d78:	e52db004 	push	{fp}		; (str fp, [sp, #-4]!)
    9d7c:	e28db000 	add	fp, sp, #0, 0
    9d80:	e24dd00c 	sub	sp, sp, #12, 0
    9d84:	e50b0008 	str	r0, [fp, #-8]
    9d88:	e51b3008 	ldr	r3, [fp, #-8]
    9d8c:	e2833a02 	add	r3, r3, #8192	; 0x2000
    9d90:	e5932004 	ldr	r2, [r3, #4]
    9d94:	e51b3008 	ldr	r3, [fp, #-8]
    9d98:	e2833a02 	add	r3, r3, #8192	; 0x2000
    9d9c:	e5933008 	ldr	r3, [r3, #8]
    9da0:	e1520003 	cmp	r2, r3
    9da4:	03a03001 	moveq	r3, #1, 0
    9da8:	13a03000 	movne	r3, #0, 0
    9dac:	e6ef3073 	uxtb	r3, r3
    9db0:	e1a00003 	mov	r0, r3
    9db4:	e28bd000 	add	sp, fp, #0, 0
    9db8:	e49db004 	pop	{fp}		; (ldr fp, [sp], #4)
    9dbc:	e12fff1e 	bx	lr

00009dc0 <cq_nelem>:
    9dc0:	e52db004 	push	{fp}		; (str fp, [sp, #-4]!)
    9dc4:	e28db000 	add	fp, sp, #0, 0
    9dc8:	e24dd00c 	sub	sp, sp, #12, 0
    9dcc:	e50b0008 	str	r0, [fp, #-8]
    9dd0:	e51b3008 	ldr	r3, [fp, #-8]
    9dd4:	e2833a02 	add	r3, r3, #8192	; 0x2000
    9dd8:	e5932004 	ldr	r2, [r3, #4]
    9ddc:	e51b3008 	ldr	r3, [fp, #-8]
    9de0:	e2833a02 	add	r3, r3, #8192	; 0x2000
    9de4:	e5933008 	ldr	r3, [r3, #8]
    9de8:	e0423003 	sub	r3, r2, r3
    9dec:	e1a03983 	lsl	r3, r3, #19
    9df0:	e1a039a3 	lsr	r3, r3, #19
    9df4:	e1a00003 	mov	r0, r3
    9df8:	e28bd000 	add	sp, fp, #0, 0
    9dfc:	e49db004 	pop	{fp}		; (ldr fp, [sp], #4)
    9e00:	e12fff1e 	bx	lr

00009e04 <cq_pop_nonblock>:
    9e04:	e92d4800 	push	{fp, lr}
    9e08:	e28db004 	add	fp, sp, #4, 0
    9e0c:	e24dd010 	sub	sp, sp, #16, 0
    9e10:	e50b0010 	str	r0, [fp, #-16]
    9e14:	e50b1014 	str	r1, [fp, #-20]	; 0xffffffec
    9e18:	e51b0010 	ldr	r0, [fp, #-16]
    9e1c:	ebffffd5 	bl	9d78 <cq_empty>
    9e20:	e1a03000 	mov	r3, r0
    9e24:	e3530000 	cmp	r3, #0, 0
    9e28:	0a000001 	beq	9e34 <cq_pop_nonblock+0x30>
    9e2c:	e3a03000 	mov	r3, #0, 0
    9e30:	ea000011 	b	9e7c <cq_pop_nonblock+0x78>
    9e34:	e51b3010 	ldr	r3, [fp, #-16]
    9e38:	e2833a02 	add	r3, r3, #8192	; 0x2000
    9e3c:	e5933008 	ldr	r3, [r3, #8]
    9e40:	e50b3008 	str	r3, [fp, #-8]
    9e44:	e51b2010 	ldr	r2, [fp, #-16]
    9e48:	e51b3008 	ldr	r3, [fp, #-8]
    9e4c:	e0823003 	add	r3, r2, r3
    9e50:	e5d32000 	ldrb	r2, [r3]
    9e54:	e51b3014 	ldr	r3, [fp, #-20]	; 0xffffffec
    9e58:	e5c32000 	strb	r2, [r3]
    9e5c:	e51b3008 	ldr	r3, [fp, #-8]
    9e60:	e2833001 	add	r3, r3, #1, 0
    9e64:	e1a03983 	lsl	r3, r3, #19
    9e68:	e1a039a3 	lsr	r3, r3, #19
    9e6c:	e51b2010 	ldr	r2, [fp, #-16]
    9e70:	e2822a02 	add	r2, r2, #8192	; 0x2000
    9e74:	e5823008 	str	r3, [r2, #8]
    9e78:	e3a03001 	mov	r3, #1, 0
    9e7c:	e1a00003 	mov	r0, r3
    9e80:	e24bd004 	sub	sp, fp, #4, 0
    9e84:	e8bd8800 	pop	{fp, pc}

00009e88 <cq_pop>:
    9e88:	e92d4800 	push	{fp, lr}
    9e8c:	e28db004 	add	fp, sp, #4, 0
    9e90:	e24dd010 	sub	sp, sp, #16, 0
    9e94:	e50b0010 	str	r0, [fp, #-16]
    9e98:	e3a03000 	mov	r3, #0, 0
    9e9c:	e54b3005 	strb	r3, [fp, #-5]
    9ea0:	ea000009 	b	9ecc <cq_pop+0x44>
    9ea4:	ebffffa7 	bl	9d48 <cpsr_int_enabled>
    9ea8:	e1a03000 	mov	r3, r0
    9eac:	e3530000 	cmp	r3, #0, 0
    9eb0:	1a000005 	bne	9ecc <cq_pop+0x44>
    9eb4:	e3a03060 	mov	r3, #96, 0	; 0x60
    9eb8:	e59f2038 	ldr	r2, [pc, #56]	; 9ef8 <cq_pop+0x70>
    9ebc:	e59f1038 	ldr	r1, [pc, #56]	; 9efc <cq_pop+0x74>
    9ec0:	e59f0038 	ldr	r0, [pc, #56]	; 9f00 <cq_pop+0x78>
    9ec4:	eb000bf2 	bl	ce94 <printk>
    9ec8:	eb000c48 	bl	cff0 <clean_reboot>
    9ecc:	e24b3005 	sub	r3, fp, #5, 0
    9ed0:	e1a01003 	mov	r1, r3
    9ed4:	e51b0010 	ldr	r0, [fp, #-16]
    9ed8:	ebffffc9 	bl	9e04 <cq_pop_nonblock>
    9edc:	e1a03000 	mov	r3, r0
    9ee0:	e3530000 	cmp	r3, #0, 0
    9ee4:	0affffee 	beq	9ea4 <cq_pop+0x1c>
    9ee8:	e55b3005 	ldrb	r3, [fp, #-5]
    9eec:	e1a00003 	mov	r0, r3
    9ef0:	e24bd004 	sub	sp, fp, #4, 0
    9ef4:	e8bd8800 	pop	{fp, pc}
    9ef8:	0000e9bc 	.word	0x0000e9bc
    9efc:	0000e868 	.word	0x0000e868
    9f00:	0000e8a4 	.word	0x0000e8a4

00009f04 <cq_pop_n>:
    9f04:	e92d4810 	push	{r4, fp, lr}
    9f08:	e28db008 	add	fp, sp, #8, 0
    9f0c:	e24dd01c 	sub	sp, sp, #28, 0
    9f10:	e50b0018 	str	r0, [fp, #-24]	; 0xffffffe8
    9f14:	e50b101c 	str	r1, [fp, #-28]	; 0xffffffe4
    9f18:	e50b2020 	str	r2, [fp, #-32]	; 0xffffffe0
    9f1c:	e51b301c 	ldr	r3, [fp, #-28]	; 0xffffffe4
    9f20:	e50b3014 	str	r3, [fp, #-20]	; 0xffffffec
    9f24:	e3a03000 	mov	r3, #0, 0
    9f28:	e50b3010 	str	r3, [fp, #-16]
    9f2c:	ea000009 	b	9f58 <cq_pop_n+0x54>
    9f30:	e51b3010 	ldr	r3, [fp, #-16]
    9f34:	e51b2014 	ldr	r2, [fp, #-20]	; 0xffffffec
    9f38:	e0824003 	add	r4, r2, r3
    9f3c:	e51b0018 	ldr	r0, [fp, #-24]	; 0xffffffe8
    9f40:	ebffffd0 	bl	9e88 <cq_pop>
    9f44:	e1a03000 	mov	r3, r0
    9f48:	e5c43000 	strb	r3, [r4]
    9f4c:	e51b3010 	ldr	r3, [fp, #-16]
    9f50:	e2833001 	add	r3, r3, #1, 0
    9f54:	e50b3010 	str	r3, [fp, #-16]
    9f58:	e51b3010 	ldr	r3, [fp, #-16]
    9f5c:	e51b2020 	ldr	r2, [fp, #-32]	; 0xffffffe0
    9f60:	e1520003 	cmp	r2, r3
    9f64:	8afffff1 	bhi	9f30 <cq_pop_n+0x2c>
    9f68:	e320f000 	nop	{0}
    9f6c:	e24bd008 	sub	sp, fp, #8, 0
    9f70:	e8bd8810 	pop	{r4, fp, pc}

00009f74 <timeout_start>:
    9f74:	e92d4800 	push	{fp, lr}
    9f78:	e28db004 	add	fp, sp, #4, 0
    9f7c:	e24dd018 	sub	sp, sp, #24, 0
    9f80:	e50b0018 	str	r0, [fp, #-24]	; 0xffffffe8
    9f84:	eb000cb2 	bl	d254 <timer_get_usec>
    9f88:	e1a02000 	mov	r2, r0
    9f8c:	e51b3018 	ldr	r3, [fp, #-24]	; 0xffffffe8
    9f90:	e5832000 	str	r2, [r3]
    9f94:	e51b1018 	ldr	r1, [fp, #-24]	; 0xffffffe8
    9f98:	e3a02000 	mov	r2, #0, 0
    9f9c:	e3a03000 	mov	r3, #0, 0
    9fa0:	e1c120f8 	strd	r2, [r1, #8]
    9fa4:	e51b0018 	ldr	r0, [fp, #-24]	; 0xffffffe8
    9fa8:	e24bd004 	sub	sp, fp, #4, 0
    9fac:	e8bd8800 	pop	{fp, pc}

00009fb0 <timeout_get_usec>:
    9fb0:	e92d4830 	push	{r4, r5, fp, lr}
    9fb4:	e28db00c 	add	fp, sp, #12, 0
    9fb8:	e24dd010 	sub	sp, sp, #16, 0
    9fbc:	e50b0018 	str	r0, [fp, #-24]	; 0xffffffe8
    9fc0:	eb000ca3 	bl	d254 <timer_get_usec>
    9fc4:	e50b0010 	str	r0, [fp, #-16]
    9fc8:	e51b3018 	ldr	r3, [fp, #-24]	; 0xffffffe8
    9fcc:	e1c300d8 	ldrd	r0, [r3, #8]
    9fd0:	e51b3018 	ldr	r3, [fp, #-24]	; 0xffffffe8
    9fd4:	e5933000 	ldr	r3, [r3]
    9fd8:	e51b2010 	ldr	r2, [fp, #-16]
    9fdc:	e0423003 	sub	r3, r2, r3
    9fe0:	e1a02003 	mov	r2, r3
    9fe4:	e3a03000 	mov	r3, #0, 0
    9fe8:	e0904002 	adds	r4, r0, r2
    9fec:	e0a15003 	adc	r5, r1, r3
    9ff0:	e51b3018 	ldr	r3, [fp, #-24]	; 0xffffffe8
    9ff4:	e1c340f8 	strd	r4, [r3, #8]
    9ff8:	e51b3018 	ldr	r3, [fp, #-24]	; 0xffffffe8
    9ffc:	e51b2010 	ldr	r2, [fp, #-16]
    a000:	e5832000 	str	r2, [r3]
    a004:	e51b3018 	ldr	r3, [fp, #-24]	; 0xffffffe8
    a008:	e1c320d8 	ldrd	r2, [r3, #8]
    a00c:	e1a00002 	mov	r0, r2
    a010:	e1a01003 	mov	r1, r3
    a014:	e24bd00c 	sub	sp, fp, #12, 0
    a018:	e8bd8830 	pop	{r4, r5, fp, pc}

0000a01c <timeout_usec>:
    a01c:	e92d4800 	push	{fp, lr}
    a020:	e28db004 	add	fp, sp, #4, 0
    a024:	e24dd010 	sub	sp, sp, #16, 0
    a028:	e50b0008 	str	r0, [fp, #-8]
    a02c:	e14b21f4 	strd	r2, [fp, #-20]	; 0xffffffec
    a030:	e51b0008 	ldr	r0, [fp, #-8]
    a034:	ebffffdd 	bl	9fb0 <timeout_get_usec>
    a038:	e14b21d4 	ldrd	r2, [fp, #-20]	; 0xffffffec
    a03c:	e1530001 	cmp	r3, r1
    a040:	01520000 	cmpeq	r2, r0
    a044:	93a03001 	movls	r3, #1, 0
    a048:	83a03000 	movhi	r3, #0, 0
    a04c:	e6ef3073 	uxtb	r3, r3
    a050:	e1a00003 	mov	r0, r3
    a054:	e24bd004 	sub	sp, fp, #4, 0
    a058:	e8bd8800 	pop	{fp, pc}

0000a05c <nrf_nbytes_avail>:
    a05c:	e92d4800 	push	{fp, lr}
    a060:	e28db004 	add	fp, sp, #4, 0
    a064:	e24dd008 	sub	sp, sp, #8, 0
    a068:	e50b0008 	str	r0, [fp, #-8]
    a06c:	e320f000 	nop	{0}
    a070:	e51b0008 	ldr	r0, [fp, #-8]
    a074:	eb0005f0 	bl	b83c <nrf_get_pkts>
    a078:	e1a03000 	mov	r3, r0
    a07c:	e3530000 	cmp	r3, #0, 0
    a080:	1afffffa 	bne	a070 <nrf_nbytes_avail+0x14>
    a084:	e51b3008 	ldr	r3, [fp, #-8]
    a088:	e2833024 	add	r3, r3, #36, 0	; 0x24
    a08c:	e1a00003 	mov	r0, r3
    a090:	ebffff4a 	bl	9dc0 <cq_nelem>
    a094:	e1a03000 	mov	r3, r0
    a098:	e1a00003 	mov	r0, r3
    a09c:	e24bd004 	sub	sp, fp, #4, 0
    a0a0:	e8bd8800 	pop	{fp, pc}

0000a0a4 <nrf_read_exact_noblk>:
    a0a4:	e92d4800 	push	{fp, lr}
    a0a8:	e28db004 	add	fp, sp, #4, 0
    a0ac:	e24dd020 	sub	sp, sp, #32, 0
    a0b0:	e50b0010 	str	r0, [fp, #-16]
    a0b4:	e50b1014 	str	r1, [fp, #-20]	; 0xffffffec
    a0b8:	e50b2018 	str	r2, [fp, #-24]	; 0xffffffe8
    a0bc:	e51b3018 	ldr	r3, [fp, #-24]	; 0xffffffe8
    a0c0:	e3530000 	cmp	r3, #0, 0
    a0c4:	1a000007 	bne	a0e8 <nrf_read_exact_noblk+0x44>
    a0c8:	e59f307c 	ldr	r3, [pc, #124]	; a14c <nrf_read_exact_noblk+0xa8>
    a0cc:	e58d3000 	str	r3, [sp]
    a0d0:	e3a03011 	mov	r3, #17, 0
    a0d4:	e59f2074 	ldr	r2, [pc, #116]	; a150 <nrf_read_exact_noblk+0xac>
    a0d8:	e59f1074 	ldr	r1, [pc, #116]	; a154 <nrf_read_exact_noblk+0xb0>
    a0dc:	e59f0074 	ldr	r0, [pc, #116]	; a158 <nrf_read_exact_noblk+0xb4>
    a0e0:	eb000b6b 	bl	ce94 <printk>
    a0e4:	eb000bc1 	bl	cff0 <clean_reboot>
    a0e8:	e51b0010 	ldr	r0, [fp, #-16]
    a0ec:	ebffffda 	bl	a05c <nrf_nbytes_avail>
    a0f0:	e1a03000 	mov	r3, r0
    a0f4:	e50b3008 	str	r3, [fp, #-8]
    a0f8:	e51b3008 	ldr	r3, [fp, #-8]
    a0fc:	e3530000 	cmp	r3, #0, 0
    a100:	1a000001 	bne	a10c <nrf_read_exact_noblk+0x68>
    a104:	e3a03000 	mov	r3, #0, 0
    a108:	ea00000c 	b	a140 <nrf_read_exact_noblk+0x9c>
    a10c:	e51b2008 	ldr	r2, [fp, #-8]
    a110:	e51b3018 	ldr	r3, [fp, #-24]	; 0xffffffe8
    a114:	e1520003 	cmp	r2, r3
    a118:	2a000001 	bcs	a124 <nrf_read_exact_noblk+0x80>
    a11c:	e3a03000 	mov	r3, #0, 0
    a120:	ea000006 	b	a140 <nrf_read_exact_noblk+0x9c>
    a124:	e51b3010 	ldr	r3, [fp, #-16]
    a128:	e2833024 	add	r3, r3, #36, 0	; 0x24
    a12c:	e51b2018 	ldr	r2, [fp, #-24]	; 0xffffffe8
    a130:	e51b1014 	ldr	r1, [fp, #-20]	; 0xffffffec
    a134:	e1a00003 	mov	r0, r3
    a138:	ebffff71 	bl	9f04 <cq_pop_n>
    a13c:	e51b3018 	ldr	r3, [fp, #-24]	; 0xffffffe8
    a140:	e1a00003 	mov	r0, r3
    a144:	e24bd004 	sub	sp, fp, #4, 0
    a148:	e8bd8800 	pop	{fp, pc}
    a14c:	0000e924 	.word	0x0000e924
    a150:	0000e9a4 	.word	0x0000e9a4
    a154:	0000e8e4 	.word	0x0000e8e4
    a158:	0000e8f4 	.word	0x0000e8f4

0000a15c <nrf_read_exact_timeout>:
    a15c:	e92d4800 	push	{fp, lr}
    a160:	e28db004 	add	fp, sp, #4, 0
    a164:	e24dd028 	sub	sp, sp, #40, 0	; 0x28
    a168:	e50b0020 	str	r0, [fp, #-32]	; 0xffffffe0
    a16c:	e50b1024 	str	r1, [fp, #-36]	; 0xffffffdc
    a170:	e50b2028 	str	r2, [fp, #-40]	; 0xffffffd8
    a174:	e50b302c 	str	r3, [fp, #-44]	; 0xffffffd4
    a178:	e24b301c 	sub	r3, fp, #28, 0
    a17c:	e1a00003 	mov	r0, r3
    a180:	ebffff7b 	bl	9f74 <timeout_start>
    a184:	ea00000b 	b	a1b8 <nrf_read_exact_timeout+0x5c>
    a188:	e51b302c 	ldr	r3, [fp, #-44]	; 0xffffffd4
    a18c:	e1a02003 	mov	r2, r3
    a190:	e3a03000 	mov	r3, #0, 0
    a194:	e24b101c 	sub	r1, fp, #28, 0
    a198:	e1a00001 	mov	r0, r1
    a19c:	ebffff9e 	bl	a01c <timeout_usec>
    a1a0:	e1a03000 	mov	r3, r0
    a1a4:	e3530000 	cmp	r3, #0, 0
    a1a8:	0a000001 	beq	a1b4 <nrf_read_exact_timeout+0x58>
    a1ac:	e3e03000 	mvn	r3, #0, 0
    a1b0:	ea000009 	b	a1dc <nrf_read_exact_timeout+0x80>
    a1b4:	eb000c18 	bl	d21c <rpi_wait>
    a1b8:	e51b2028 	ldr	r2, [fp, #-40]	; 0xffffffd8
    a1bc:	e51b1024 	ldr	r1, [fp, #-36]	; 0xffffffdc
    a1c0:	e51b0020 	ldr	r0, [fp, #-32]	; 0xffffffe0
    a1c4:	ebffffb6 	bl	a0a4 <nrf_read_exact_noblk>
    a1c8:	e50b0008 	str	r0, [fp, #-8]
    a1cc:	e51b3008 	ldr	r3, [fp, #-8]
    a1d0:	e3530000 	cmp	r3, #0, 0
    a1d4:	0affffeb 	beq	a188 <nrf_read_exact_timeout+0x2c>
    a1d8:	e51b3008 	ldr	r3, [fp, #-8]
    a1dc:	e1a00003 	mov	r0, r3
    a1e0:	e24bd004 	sub	sp, fp, #4, 0
    a1e4:	e8bd8800 	pop	{fp, pc}

0000a1e8 <nrf_read_exact>:
    a1e8:	e92d4800 	push	{fp, lr}
    a1ec:	e28db004 	add	fp, sp, #4, 0
    a1f0:	e24dd020 	sub	sp, sp, #32, 0
    a1f4:	e50b0010 	str	r0, [fp, #-16]
    a1f8:	e50b1014 	str	r1, [fp, #-20]	; 0xffffffec
    a1fc:	e50b2018 	str	r2, [fp, #-24]	; 0xffffffe8
    a200:	e59f30b8 	ldr	r3, [pc, #184]	; a2c0 <nrf_read_exact+0xd8>
    a204:	e50b3008 	str	r3, [fp, #-8]
    a208:	e51b3008 	ldr	r3, [fp, #-8]
    a20c:	e51b2018 	ldr	r2, [fp, #-24]	; 0xffffffe8
    a210:	e51b1014 	ldr	r1, [fp, #-20]	; 0xffffffec
    a214:	e51b0010 	ldr	r0, [fp, #-16]
    a218:	ebffffcf 	bl	a15c <nrf_read_exact_timeout>
    a21c:	e50b000c 	str	r0, [fp, #-12]
    a220:	e51b300c 	ldr	r3, [fp, #-12]
    a224:	e51b2018 	ldr	r2, [fp, #-24]	; 0xffffffe8
    a228:	e1520003 	cmp	r2, r3
    a22c:	1a000001 	bne	a238 <nrf_read_exact+0x50>
    a230:	e51b300c 	ldr	r3, [fp, #-12]
    a234:	ea00001e 	b	a2b4 <nrf_read_exact+0xcc>
    a238:	e51b300c 	ldr	r3, [fp, #-12]
    a23c:	e3530000 	cmp	r3, #0, 0
    a240:	aa00000f 	bge	a284 <nrf_read_exact+0x9c>
    a244:	e51b3010 	ldr	r3, [fp, #-16]
    a248:	e5933020 	ldr	r3, [r3, #32]
    a24c:	e3a0200a 	mov	r2, #10, 0
    a250:	e58d2004 	str	r2, [sp, #4]
    a254:	e58d3000 	str	r3, [sp]
    a258:	e3a0303c 	mov	r3, #60, 0	; 0x3c
    a25c:	e59f2060 	ldr	r2, [pc, #96]	; a2c4 <nrf_read_exact+0xdc>
    a260:	e59f1060 	ldr	r1, [pc, #96]	; a2c8 <nrf_read_exact+0xe0>
    a264:	e59f0060 	ldr	r0, [pc, #96]	; a2cc <nrf_read_exact+0xe4>
    a268:	eb000b09 	bl	ce94 <printk>
    a26c:	e3a0303f 	mov	r3, #63, 0	; 0x3f
    a270:	e59f204c 	ldr	r2, [pc, #76]	; a2c4 <nrf_read_exact+0xdc>
    a274:	e59f104c 	ldr	r1, [pc, #76]	; a2c8 <nrf_read_exact+0xe0>
    a278:	e59f0050 	ldr	r0, [pc, #80]	; a2d0 <nrf_read_exact+0xe8>
    a27c:	eb000b04 	bl	ce94 <printk>
    a280:	eb000b5a 	bl	cff0 <clean_reboot>
    a284:	e51b300c 	ldr	r3, [fp, #-12]
    a288:	e51b2018 	ldr	r2, [fp, #-24]	; 0xffffffe8
    a28c:	e1520003 	cmp	r2, r3
    a290:	8affffda 	bhi	a200 <nrf_read_exact+0x18>
    a294:	e59f3038 	ldr	r3, [pc, #56]	; a2d4 <nrf_read_exact+0xec>
    a298:	e58d3000 	str	r3, [sp]
    a29c:	e3a03041 	mov	r3, #65, 0	; 0x41
    a2a0:	e59f201c 	ldr	r2, [pc, #28]	; a2c4 <nrf_read_exact+0xdc>
    a2a4:	e59f101c 	ldr	r1, [pc, #28]	; a2c8 <nrf_read_exact+0xe0>
    a2a8:	e59f0028 	ldr	r0, [pc, #40]	; a2d8 <nrf_read_exact+0xf0>
    a2ac:	eb000af8 	bl	ce94 <printk>
    a2b0:	eb000b4e 	bl	cff0 <clean_reboot>
    a2b4:	e1a00003 	mov	r0, r3
    a2b8:	e24bd004 	sub	sp, fp, #4, 0
    a2bc:	e8bd8800 	pop	{fp, pc}
    a2c0:	00989680 	.word	0x00989680
    a2c4:	0000e9c4 	.word	0x0000e9c4
    a2c8:	0000e8e4 	.word	0x0000e8e4
    a2cc:	0000e930 	.word	0x0000e930
    a2d0:	0000e978 	.word	0x0000e978
    a2d4:	0000e998 	.word	0x0000e998
    a2d8:	0000e8f4 	.word	0x0000e8f4

0000a2dc <nrf_send_ack>:
    a2dc:	e92d4800 	push	{fp, lr}
    a2e0:	e28db004 	add	fp, sp, #4, 0
    a2e4:	e24dd010 	sub	sp, sp, #16, 0
    a2e8:	e50b0008 	str	r0, [fp, #-8]
    a2ec:	e50b100c 	str	r1, [fp, #-12]
    a2f0:	e50b2010 	str	r2, [fp, #-16]
    a2f4:	e50b3014 	str	r3, [fp, #-20]	; 0xffffffec
    a2f8:	e51b3014 	ldr	r3, [fp, #-20]	; 0xffffffec
    a2fc:	e51b2010 	ldr	r2, [fp, #-16]
    a300:	e51b100c 	ldr	r1, [fp, #-12]
    a304:	e51b0008 	ldr	r0, [fp, #-8]
    a308:	eb000391 	bl	b154 <nrf_tx_send_ack>
    a30c:	e1a03000 	mov	r3, r0
    a310:	e1a00003 	mov	r0, r3
    a314:	e24bd004 	sub	sp, fp, #4, 0
    a318:	e8bd8800 	pop	{fp, pc}

0000a31c <nrf_send_noack>:
    a31c:	e92d4800 	push	{fp, lr}
    a320:	e28db004 	add	fp, sp, #4, 0
    a324:	e24dd010 	sub	sp, sp, #16, 0
    a328:	e50b0008 	str	r0, [fp, #-8]
    a32c:	e50b100c 	str	r1, [fp, #-12]
    a330:	e50b2010 	str	r2, [fp, #-16]
    a334:	e50b3014 	str	r3, [fp, #-20]	; 0xffffffec
    a338:	e51b3014 	ldr	r3, [fp, #-20]	; 0xffffffec
    a33c:	e51b2010 	ldr	r2, [fp, #-16]
    a340:	e51b100c 	ldr	r1, [fp, #-12]
    a344:	e51b0008 	ldr	r0, [fp, #-8]
    a348:	eb000479 	bl	b534 <nrf_tx_send_noack>
    a34c:	e1a03000 	mov	r3, r0
    a350:	e1a00003 	mov	r0, r3
    a354:	e24bd004 	sub	sp, fp, #4, 0
    a358:	e8bd8800 	pop	{fp, pc}

0000a35c <cq_full>:
    a35c:	e52db004 	push	{fp}		; (str fp, [sp, #-4]!)
    a360:	e28db000 	add	fp, sp, #0, 0
    a364:	e24dd00c 	sub	sp, sp, #12, 0
    a368:	e50b0008 	str	r0, [fp, #-8]
    a36c:	e51b3008 	ldr	r3, [fp, #-8]
    a370:	e2833a02 	add	r3, r3, #8192	; 0x2000
    a374:	e5933004 	ldr	r3, [r3, #4]
    a378:	e2833001 	add	r3, r3, #1, 0
    a37c:	e1a03983 	lsl	r3, r3, #19
    a380:	e1a039a3 	lsr	r3, r3, #19
    a384:	e51b2008 	ldr	r2, [fp, #-8]
    a388:	e2822a02 	add	r2, r2, #8192	; 0x2000
    a38c:	e5922008 	ldr	r2, [r2, #8]
    a390:	e1530002 	cmp	r3, r2
    a394:	03a03001 	moveq	r3, #1, 0
    a398:	13a03000 	movne	r3, #0, 0
    a39c:	e6ef3073 	uxtb	r3, r3
    a3a0:	e1a00003 	mov	r0, r3
    a3a4:	e28bd000 	add	sp, fp, #0, 0
    a3a8:	e49db004 	pop	{fp}		; (ldr fp, [sp], #4)
    a3ac:	e12fff1e 	bx	lr

0000a3b0 <cq_nelem>:
    a3b0:	e52db004 	push	{fp}		; (str fp, [sp, #-4]!)
    a3b4:	e28db000 	add	fp, sp, #0, 0
    a3b8:	e24dd00c 	sub	sp, sp, #12, 0
    a3bc:	e50b0008 	str	r0, [fp, #-8]
    a3c0:	e51b3008 	ldr	r3, [fp, #-8]
    a3c4:	e2833a02 	add	r3, r3, #8192	; 0x2000
    a3c8:	e5932004 	ldr	r2, [r3, #4]
    a3cc:	e51b3008 	ldr	r3, [fp, #-8]
    a3d0:	e2833a02 	add	r3, r3, #8192	; 0x2000
    a3d4:	e5933008 	ldr	r3, [r3, #8]
    a3d8:	e0423003 	sub	r3, r2, r3
    a3dc:	e1a03983 	lsl	r3, r3, #19
    a3e0:	e1a039a3 	lsr	r3, r3, #19
    a3e4:	e1a00003 	mov	r0, r3
    a3e8:	e28bd000 	add	sp, fp, #0, 0
    a3ec:	e49db004 	pop	{fp}		; (ldr fp, [sp], #4)
    a3f0:	e12fff1e 	bx	lr

0000a3f4 <cq_nspace>:
    a3f4:	e92d4800 	push	{fp, lr}
    a3f8:	e28db004 	add	fp, sp, #4, 0
    a3fc:	e24dd008 	sub	sp, sp, #8, 0
    a400:	e50b0008 	str	r0, [fp, #-8]
    a404:	e51b0008 	ldr	r0, [fp, #-8]
    a408:	ebffffe8 	bl	a3b0 <cq_nelem>
    a40c:	e1a03000 	mov	r3, r0
    a410:	e2633d7f 	rsb	r3, r3, #8128	; 0x1fc0
    a414:	e283303f 	add	r3, r3, #63, 0	; 0x3f
    a418:	e1a00003 	mov	r0, r3
    a41c:	e24bd004 	sub	sp, fp, #4, 0
    a420:	e8bd8800 	pop	{fp, pc}

0000a424 <cq_push>:
    a424:	e92d4800 	push	{fp, lr}
    a428:	e28db004 	add	fp, sp, #4, 0
    a42c:	e24dd018 	sub	sp, sp, #24, 0
    a430:	e50b0010 	str	r0, [fp, #-16]
    a434:	e1a03001 	mov	r3, r1
    a438:	e54b3011 	strb	r3, [fp, #-17]	; 0xffffffef
    a43c:	e51b0010 	ldr	r0, [fp, #-16]
    a440:	ebffffc5 	bl	a35c <cq_full>
    a444:	e1a03000 	mov	r3, r0
    a448:	e3530000 	cmp	r3, #0, 0
    a44c:	0a000001 	beq	a458 <cq_push+0x34>
    a450:	e3a03000 	mov	r3, #0, 0
    a454:	ea00001d 	b	a4d0 <cq_push+0xac>
    a458:	e51b3010 	ldr	r3, [fp, #-16]
    a45c:	e2833a02 	add	r3, r3, #8192	; 0x2000
    a460:	e5933004 	ldr	r3, [r3, #4]
    a464:	e50b3008 	str	r3, [fp, #-8]
    a468:	e51b0010 	ldr	r0, [fp, #-16]
    a46c:	ebffffe0 	bl	a3f4 <cq_nspace>
    a470:	e1a03000 	mov	r3, r0
    a474:	e3530000 	cmp	r3, #0, 0
    a478:	1a000007 	bne	a49c <cq_push+0x78>
    a47c:	e59f3058 	ldr	r3, [pc, #88]	; a4dc <cq_push+0xb8>
    a480:	e58d3000 	str	r3, [sp]
    a484:	e3a0306b 	mov	r3, #107, 0	; 0x6b
    a488:	e59f2050 	ldr	r2, [pc, #80]	; a4e0 <cq_push+0xbc>
    a48c:	e59f1050 	ldr	r1, [pc, #80]	; a4e4 <cq_push+0xc0>
    a490:	e59f0050 	ldr	r0, [pc, #80]	; a4e8 <cq_push+0xc4>
    a494:	eb000a7e 	bl	ce94 <printk>
    a498:	eb000ad4 	bl	cff0 <clean_reboot>
    a49c:	e51b2010 	ldr	r2, [fp, #-16]
    a4a0:	e51b3008 	ldr	r3, [fp, #-8]
    a4a4:	e0823003 	add	r3, r2, r3
    a4a8:	e55b2011 	ldrb	r2, [fp, #-17]	; 0xffffffef
    a4ac:	e5c32000 	strb	r2, [r3]
    a4b0:	e51b3008 	ldr	r3, [fp, #-8]
    a4b4:	e2833001 	add	r3, r3, #1, 0
    a4b8:	e1a03983 	lsl	r3, r3, #19
    a4bc:	e1a039a3 	lsr	r3, r3, #19
    a4c0:	e51b2010 	ldr	r2, [fp, #-16]
    a4c4:	e2822a02 	add	r2, r2, #8192	; 0x2000
    a4c8:	e5823004 	str	r3, [r2, #4]
    a4cc:	e3a03001 	mov	r3, #1, 0
    a4d0:	e1a00003 	mov	r0, r3
    a4d4:	e24bd004 	sub	sp, fp, #4, 0
    a4d8:	e8bd8800 	pop	{fp, pc}
    a4dc:	0000ea40 	.word	0x0000ea40
    a4e0:	0000ed5c 	.word	0x0000ed5c
    a4e4:	0000e9d4 	.word	0x0000e9d4
    a4e8:	0000ea10 	.word	0x0000ea10

0000a4ec <cq_push_n>:
    a4ec:	e92d4800 	push	{fp, lr}
    a4f0:	e28db004 	add	fp, sp, #4, 0
    a4f4:	e24dd020 	sub	sp, sp, #32, 0
    a4f8:	e50b0010 	str	r0, [fp, #-16]
    a4fc:	e50b1014 	str	r1, [fp, #-20]	; 0xffffffec
    a500:	e50b2018 	str	r2, [fp, #-24]	; 0xffffffe8
    a504:	e51b3018 	ldr	r3, [fp, #-24]	; 0xffffffe8
    a508:	e3530000 	cmp	r3, #0, 0
    a50c:	1a000007 	bne	a530 <cq_push_n+0x44>
    a510:	e59f30b8 	ldr	r3, [pc, #184]	; a5d0 <cq_push_n+0xe4>
    a514:	e58d3000 	str	r3, [sp]
    a518:	e3a030a2 	mov	r3, #162, 0	; 0xa2
    a51c:	e59f20b0 	ldr	r2, [pc, #176]	; a5d4 <cq_push_n+0xe8>
    a520:	e59f10b0 	ldr	r1, [pc, #176]	; a5d8 <cq_push_n+0xec>
    a524:	e59f00b0 	ldr	r0, [pc, #176]	; a5dc <cq_push_n+0xf0>
    a528:	eb000a59 	bl	ce94 <printk>
    a52c:	eb000aaf 	bl	cff0 <clean_reboot>
    a530:	e51b3014 	ldr	r3, [fp, #-20]	; 0xffffffec
    a534:	e50b300c 	str	r3, [fp, #-12]
    a538:	e51b0010 	ldr	r0, [fp, #-16]
    a53c:	ebffffac 	bl	a3f4 <cq_nspace>
    a540:	e1a02000 	mov	r2, r0
    a544:	e51b3018 	ldr	r3, [fp, #-24]	; 0xffffffe8
    a548:	e1530002 	cmp	r3, r2
    a54c:	9a000001 	bls	a558 <cq_push_n+0x6c>
    a550:	e3a03000 	mov	r3, #0, 0
    a554:	ea00001a 	b	a5c4 <cq_push_n+0xd8>
    a558:	e3a03000 	mov	r3, #0, 0
    a55c:	e50b3008 	str	r3, [fp, #-8]
    a560:	ea000012 	b	a5b0 <cq_push_n+0xc4>
    a564:	e51b3008 	ldr	r3, [fp, #-8]
    a568:	e51b200c 	ldr	r2, [fp, #-12]
    a56c:	e0823003 	add	r3, r2, r3
    a570:	e5d33000 	ldrb	r3, [r3]
    a574:	e1a01003 	mov	r1, r3
    a578:	e51b0010 	ldr	r0, [fp, #-16]
    a57c:	ebffffa8 	bl	a424 <cq_push>
    a580:	e1a03000 	mov	r3, r0
    a584:	e3530000 	cmp	r3, #0, 0
    a588:	1a000005 	bne	a5a4 <cq_push_n+0xb8>
    a58c:	e3a030ab 	mov	r3, #171, 0	; 0xab
    a590:	e59f203c 	ldr	r2, [pc, #60]	; a5d4 <cq_push_n+0xe8>
    a594:	e59f103c 	ldr	r1, [pc, #60]	; a5d8 <cq_push_n+0xec>
    a598:	e59f0040 	ldr	r0, [pc, #64]	; a5e0 <cq_push_n+0xf4>
    a59c:	eb000a3c 	bl	ce94 <printk>
    a5a0:	eb000a92 	bl	cff0 <clean_reboot>
    a5a4:	e51b3008 	ldr	r3, [fp, #-8]
    a5a8:	e2833001 	add	r3, r3, #1, 0
    a5ac:	e50b3008 	str	r3, [fp, #-8]
    a5b0:	e51b3008 	ldr	r3, [fp, #-8]
    a5b4:	e51b2018 	ldr	r2, [fp, #-24]	; 0xffffffe8
    a5b8:	e1520003 	cmp	r2, r3
    a5bc:	8affffe8 	bhi	a564 <cq_push_n+0x78>
    a5c0:	e3a03001 	mov	r3, #1, 0
    a5c4:	e1a00003 	mov	r0, r3
    a5c8:	e24bd004 	sub	sp, fp, #4, 0
    a5cc:	e8bd8800 	pop	{fp, pc}
    a5d0:	0000ea54 	.word	0x0000ea54
    a5d4:	0000ed50 	.word	0x0000ed50
    a5d8:	0000e9d4 	.word	0x0000e9d4
    a5dc:	0000ea10 	.word	0x0000ea10
    a5e0:	0000ea58 	.word	0x0000ea58

0000a5e4 <nrf_stat_start>:
    a5e4:	e92d4800 	push	{fp, lr}
    a5e8:	e28db004 	add	fp, sp, #4, 0
    a5ec:	e24dd008 	sub	sp, sp, #8, 0
    a5f0:	e50b0008 	str	r0, [fp, #-8]
    a5f4:	eb000b16 	bl	d254 <timer_get_usec>
    a5f8:	e1a02000 	mov	r2, r0
    a5fc:	e51b3008 	ldr	r3, [fp, #-8]
    a600:	e2833a02 	add	r3, r3, #8192	; 0x2000
    a604:	e583203c 	str	r2, [r3, #60]	; 0x3c
    a608:	e51b3008 	ldr	r3, [fp, #-8]
    a60c:	e2833a02 	add	r3, r3, #8192	; 0x2000
    a610:	e1a02003 	mov	r2, r3
    a614:	e3a03000 	mov	r3, #0, 0
    a618:	e5823040 	str	r3, [r2, #64]	; 0x40
    a61c:	e51b3008 	ldr	r3, [fp, #-8]
    a620:	e2833a02 	add	r3, r3, #8192	; 0x2000
    a624:	e1a02003 	mov	r2, r3
    a628:	e3a03000 	mov	r3, #0, 0
    a62c:	e5823044 	str	r3, [r2, #68]	; 0x44
    a630:	e51b3008 	ldr	r3, [fp, #-8]
    a634:	e2833a02 	add	r3, r3, #8192	; 0x2000
    a638:	e1a02003 	mov	r2, r3
    a63c:	e3a03000 	mov	r3, #0, 0
    a640:	e5823048 	str	r3, [r2, #72]	; 0x48
    a644:	e51b3008 	ldr	r3, [fp, #-8]
    a648:	e2833a02 	add	r3, r3, #8192	; 0x2000
    a64c:	e1a02003 	mov	r2, r3
    a650:	e3a03000 	mov	r3, #0, 0
    a654:	e582304c 	str	r3, [r2, #76]	; 0x4c
    a658:	e51b3008 	ldr	r3, [fp, #-8]
    a65c:	e2833a02 	add	r3, r3, #8192	; 0x2000
    a660:	e1a02003 	mov	r2, r3
    a664:	e3a03000 	mov	r3, #0, 0
    a668:	e5823050 	str	r3, [r2, #80]	; 0x50
    a66c:	e51b3008 	ldr	r3, [fp, #-8]
    a670:	e2833a02 	add	r3, r3, #8192	; 0x2000
    a674:	e1a02003 	mov	r2, r3
    a678:	e3a03000 	mov	r3, #0, 0
    a67c:	e5823054 	str	r3, [r2, #84]	; 0x54
    a680:	e320f000 	nop	{0}
    a684:	e24bd004 	sub	sp, fp, #4, 0
    a688:	e8bd8800 	pop	{fp, pc}

0000a68c <bit_is_on>:
    a68c:	e92d4800 	push	{fp, lr}
    a690:	e28db004 	add	fp, sp, #4, 0
    a694:	e24dd010 	sub	sp, sp, #16, 0
    a698:	e50b0008 	str	r0, [fp, #-8]
    a69c:	e50b100c 	str	r1, [fp, #-12]
    a6a0:	e51b300c 	ldr	r3, [fp, #-12]
    a6a4:	e353001f 	cmp	r3, #31, 0
    a6a8:	9a000007 	bls	a6cc <bit_is_on+0x40>
    a6ac:	e59f3034 	ldr	r3, [pc, #52]	; a6e8 <bit_is_on+0x5c>
    a6b0:	e58d3000 	str	r3, [sp]
    a6b4:	e3a0301f 	mov	r3, #31, 0
    a6b8:	e59f202c 	ldr	r2, [pc, #44]	; a6ec <bit_is_on+0x60>
    a6bc:	e59f102c 	ldr	r1, [pc, #44]	; a6f0 <bit_is_on+0x64>
    a6c0:	e59f002c 	ldr	r0, [pc, #44]	; a6f4 <bit_is_on+0x68>
    a6c4:	eb0009f2 	bl	ce94 <printk>
    a6c8:	eb000a48 	bl	cff0 <clean_reboot>
    a6cc:	e51b2008 	ldr	r2, [fp, #-8]
    a6d0:	e51b300c 	ldr	r3, [fp, #-12]
    a6d4:	e1a03332 	lsr	r3, r2, r3
    a6d8:	e2033001 	and	r3, r3, #1, 0
    a6dc:	e1a00003 	mov	r0, r3
    a6e0:	e24bd004 	sub	sp, fp, #4, 0
    a6e4:	e8bd8800 	pop	{fp, pc}
    a6e8:	0000ead0 	.word	0x0000ead0
    a6ec:	0000ece4 	.word	0x0000ece4
    a6f0:	0000ea90 	.word	0x0000ea90
    a6f4:	0000ea10 	.word	0x0000ea10

0000a6f8 <bits_mask>:
    a6f8:	e92d4800 	push	{fp, lr}
    a6fc:	e28db004 	add	fp, sp, #4, 0
    a700:	e24dd010 	sub	sp, sp, #16, 0
    a704:	e50b0008 	str	r0, [fp, #-8]
    a708:	e51b3008 	ldr	r3, [fp, #-8]
    a70c:	e3530020 	cmp	r3, #32, 0
    a710:	1a000001 	bne	a71c <bits_mask+0x24>
    a714:	e3e03000 	mvn	r3, #0, 0
    a718:	ea00000e 	b	a758 <bits_mask+0x60>
    a71c:	e51b3008 	ldr	r3, [fp, #-8]
    a720:	e353001f 	cmp	r3, #31, 0
    a724:	9a000007 	bls	a748 <bits_mask+0x50>
    a728:	e59f3034 	ldr	r3, [pc, #52]	; a764 <bits_mask+0x6c>
    a72c:	e58d3000 	str	r3, [sp]
    a730:	e3a03033 	mov	r3, #51, 0	; 0x33
    a734:	e59f202c 	ldr	r2, [pc, #44]	; a768 <bits_mask+0x70>
    a738:	e59f102c 	ldr	r1, [pc, #44]	; a76c <bits_mask+0x74>
    a73c:	e59f002c 	ldr	r0, [pc, #44]	; a770 <bits_mask+0x78>
    a740:	eb0009d3 	bl	ce94 <printk>
    a744:	eb000a29 	bl	cff0 <clean_reboot>
    a748:	e3a02001 	mov	r2, #1, 0
    a74c:	e51b3008 	ldr	r3, [fp, #-8]
    a750:	e1a03312 	lsl	r3, r2, r3
    a754:	e2433001 	sub	r3, r3, #1, 0
    a758:	e1a00003 	mov	r0, r3
    a75c:	e24bd004 	sub	sp, fp, #4, 0
    a760:	e8bd8800 	pop	{fp, pc}
    a764:	0000ead8 	.word	0x0000ead8
    a768:	0000ed44 	.word	0x0000ed44
    a76c:	0000ea90 	.word	0x0000ea90
    a770:	0000ea10 	.word	0x0000ea10

0000a774 <bits_get>:
    a774:	e92d4810 	push	{r4, fp, lr}
    a778:	e28db008 	add	fp, sp, #8, 0
    a77c:	e24dd01c 	sub	sp, sp, #28, 0
    a780:	e50b0010 	str	r0, [fp, #-16]
    a784:	e50b1014 	str	r1, [fp, #-20]	; 0xffffffec
    a788:	e50b2018 	str	r2, [fp, #-24]	; 0xffffffe8
    a78c:	e51b2014 	ldr	r2, [fp, #-20]	; 0xffffffec
    a790:	e51b3018 	ldr	r3, [fp, #-24]	; 0xffffffe8
    a794:	e1520003 	cmp	r2, r3
    a798:	9a000007 	bls	a7bc <bits_get+0x48>
    a79c:	e59f307c 	ldr	r3, [pc, #124]	; a820 <bits_get+0xac>
    a7a0:	e58d3000 	str	r3, [sp]
    a7a4:	e3a0303a 	mov	r3, #58, 0	; 0x3a
    a7a8:	e59f2074 	ldr	r2, [pc, #116]	; a824 <bits_get+0xb0>
    a7ac:	e59f1074 	ldr	r1, [pc, #116]	; a828 <bits_get+0xb4>
    a7b0:	e59f0074 	ldr	r0, [pc, #116]	; a82c <bits_get+0xb8>
    a7b4:	eb0009b6 	bl	ce94 <printk>
    a7b8:	eb000a0c 	bl	cff0 <clean_reboot>
    a7bc:	e51b3018 	ldr	r3, [fp, #-24]	; 0xffffffe8
    a7c0:	e353001f 	cmp	r3, #31, 0
    a7c4:	9a000007 	bls	a7e8 <bits_get+0x74>
    a7c8:	e59f3060 	ldr	r3, [pc, #96]	; a830 <bits_get+0xbc>
    a7cc:	e58d3000 	str	r3, [sp]
    a7d0:	e3a0303b 	mov	r3, #59, 0	; 0x3b
    a7d4:	e59f2048 	ldr	r2, [pc, #72]	; a824 <bits_get+0xb0>
    a7d8:	e59f1048 	ldr	r1, [pc, #72]	; a828 <bits_get+0xb4>
    a7dc:	e59f0048 	ldr	r0, [pc, #72]	; a82c <bits_get+0xb8>
    a7e0:	eb0009ab 	bl	ce94 <printk>
    a7e4:	eb000a01 	bl	cff0 <clean_reboot>
    a7e8:	e51b2010 	ldr	r2, [fp, #-16]
    a7ec:	e51b3014 	ldr	r3, [fp, #-20]	; 0xffffffec
    a7f0:	e1a04332 	lsr	r4, r2, r3
    a7f4:	e51b2018 	ldr	r2, [fp, #-24]	; 0xffffffe8
    a7f8:	e51b3014 	ldr	r3, [fp, #-20]	; 0xffffffec
    a7fc:	e0423003 	sub	r3, r2, r3
    a800:	e2833001 	add	r3, r3, #1, 0
    a804:	e1a00003 	mov	r0, r3
    a808:	ebffffba 	bl	a6f8 <bits_mask>
    a80c:	e1a03000 	mov	r3, r0
    a810:	e0033004 	and	r3, r3, r4
    a814:	e1a00003 	mov	r0, r3
    a818:	e24bd008 	sub	sp, fp, #8, 0
    a81c:	e8bd8810 	pop	{r4, fp, pc}
    a820:	0000eaf0 	.word	0x0000eaf0
    a824:	0000ed38 	.word	0x0000ed38
    a828:	0000ea90 	.word	0x0000ea90
    a82c:	0000ea10 	.word	0x0000ea10
    a830:	0000eafc 	.word	0x0000eafc

0000a834 <nrf_is_pwrup>:
    a834:	e92d4800 	push	{fp, lr}
    a838:	e28db004 	add	fp, sp, #4, 0
    a83c:	e24dd008 	sub	sp, sp, #8, 0
    a840:	e50b0008 	str	r0, [fp, #-8]
    a844:	e3a01000 	mov	r1, #0, 0
    a848:	e51b0008 	ldr	r0, [fp, #-8]
    a84c:	ebfff78d 	bl	8688 <nrf_get8>
    a850:	e1a03000 	mov	r3, r0
    a854:	e3a01001 	mov	r1, #1, 0
    a858:	e1a00003 	mov	r0, r3
    a85c:	ebffff8a 	bl	a68c <bit_is_on>
    a860:	e1a03000 	mov	r3, r0
    a864:	e1a00003 	mov	r0, r3
    a868:	e24bd004 	sub	sp, fp, #4, 0
    a86c:	e8bd8800 	pop	{fp, pc}

0000a870 <nrf_set_pwrup_off>:
    a870:	e92d4800 	push	{fp, lr}
    a874:	e28db004 	add	fp, sp, #4, 0
    a878:	e24dd010 	sub	sp, sp, #16, 0
    a87c:	e50b0008 	str	r0, [fp, #-8]
    a880:	e3a02001 	mov	r2, #1, 0
    a884:	e3a01000 	mov	r1, #0, 0
    a888:	e51b0008 	ldr	r0, [fp, #-8]
    a88c:	ebfff87c 	bl	8a84 <nrf_bit_clr>
    a890:	e51b0008 	ldr	r0, [fp, #-8]
    a894:	ebffffe6 	bl	a834 <nrf_is_pwrup>
    a898:	e1a03000 	mov	r3, r0
    a89c:	e3530000 	cmp	r3, #0, 0
    a8a0:	0a000007 	beq	a8c4 <nrf_set_pwrup_off+0x54>
    a8a4:	e59f3024 	ldr	r3, [pc, #36]	; a8d0 <nrf_set_pwrup_off+0x60>
    a8a8:	e58d3000 	str	r3, [sp]
    a8ac:	e3a0306d 	mov	r3, #109, 0	; 0x6d
    a8b0:	e59f201c 	ldr	r2, [pc, #28]	; a8d4 <nrf_set_pwrup_off+0x64>
    a8b4:	e59f101c 	ldr	r1, [pc, #28]	; a8d8 <nrf_set_pwrup_off+0x68>
    a8b8:	e59f001c 	ldr	r0, [pc, #28]	; a8dc <nrf_set_pwrup_off+0x6c>
    a8bc:	eb000974 	bl	ce94 <printk>
    a8c0:	eb0009ca 	bl	cff0 <clean_reboot>
    a8c4:	e320f000 	nop	{0}
    a8c8:	e24bd004 	sub	sp, fp, #4, 0
    a8cc:	e8bd8800 	pop	{fp, pc}
    a8d0:	0000eb18 	.word	0x0000eb18
    a8d4:	0000ecd0 	.word	0x0000ecd0
    a8d8:	0000eb04 	.word	0x0000eb04
    a8dc:	0000ea10 	.word	0x0000ea10

0000a8e0 <nrf_set_pwrup_on>:
    a8e0:	e92d4800 	push	{fp, lr}
    a8e4:	e28db004 	add	fp, sp, #4, 0
    a8e8:	e24dd010 	sub	sp, sp, #16, 0
    a8ec:	e50b0008 	str	r0, [fp, #-8]
    a8f0:	e3a02001 	mov	r2, #1, 0
    a8f4:	e3a01000 	mov	r1, #0, 0
    a8f8:	e51b0008 	ldr	r0, [fp, #-8]
    a8fc:	ebfff88f 	bl	8b40 <nrf_bit_set>
    a900:	e51b0008 	ldr	r0, [fp, #-8]
    a904:	ebffffca 	bl	a834 <nrf_is_pwrup>
    a908:	e1a03000 	mov	r3, r0
    a90c:	e3530000 	cmp	r3, #0, 0
    a910:	1a000007 	bne	a934 <nrf_set_pwrup_on+0x54>
    a914:	e59f3024 	ldr	r3, [pc, #36]	; a940 <nrf_set_pwrup_on+0x60>
    a918:	e58d3000 	str	r3, [sp]
    a91c:	e3a03071 	mov	r3, #113, 0	; 0x71
    a920:	e59f201c 	ldr	r2, [pc, #28]	; a944 <nrf_set_pwrup_on+0x64>
    a924:	e59f101c 	ldr	r1, [pc, #28]	; a948 <nrf_set_pwrup_on+0x68>
    a928:	e59f001c 	ldr	r0, [pc, #28]	; a94c <nrf_set_pwrup_on+0x6c>
    a92c:	eb000958 	bl	ce94 <printk>
    a930:	eb0009ae 	bl	cff0 <clean_reboot>
    a934:	e320f000 	nop	{0}
    a938:	e24bd004 	sub	sp, fp, #4, 0
    a93c:	e8bd8800 	pop	{fp, pc}
    a940:	0000eb2c 	.word	0x0000eb2c
    a944:	0000ecf0 	.word	0x0000ecf0
    a948:	0000eb04 	.word	0x0000eb04
    a94c:	0000ea10 	.word	0x0000ea10

0000a950 <nrf_pipe_is_acked>:
    a950:	e92d4800 	push	{fp, lr}
    a954:	e28db004 	add	fp, sp, #4, 0
    a958:	e24dd008 	sub	sp, sp, #8, 0
    a95c:	e50b0008 	str	r0, [fp, #-8]
    a960:	e50b100c 	str	r1, [fp, #-12]
    a964:	e3a01001 	mov	r1, #1, 0
    a968:	e51b0008 	ldr	r0, [fp, #-8]
    a96c:	ebfff745 	bl	8688 <nrf_get8>
    a970:	e1a03000 	mov	r3, r0
    a974:	e51b100c 	ldr	r1, [fp, #-12]
    a978:	e1a00003 	mov	r0, r3
    a97c:	ebffff42 	bl	a68c <bit_is_on>
    a980:	e1a03000 	mov	r3, r0
    a984:	e3530001 	cmp	r3, #1, 0
    a988:	03a03001 	moveq	r3, #1, 0
    a98c:	13a03000 	movne	r3, #0, 0
    a990:	e6ef3073 	uxtb	r3, r3
    a994:	e1a00003 	mov	r0, r3
    a998:	e24bd004 	sub	sp, fp, #4, 0
    a99c:	e8bd8800 	pop	{fp, pc}

0000a9a0 <nrf_pipe_is_enabled>:
    a9a0:	e92d4800 	push	{fp, lr}
    a9a4:	e28db004 	add	fp, sp, #4, 0
    a9a8:	e24dd008 	sub	sp, sp, #8, 0
    a9ac:	e50b0008 	str	r0, [fp, #-8]
    a9b0:	e50b100c 	str	r1, [fp, #-12]
    a9b4:	e3a01002 	mov	r1, #2, 0
    a9b8:	e51b0008 	ldr	r0, [fp, #-8]
    a9bc:	ebfff731 	bl	8688 <nrf_get8>
    a9c0:	e1a03000 	mov	r3, r0
    a9c4:	e51b100c 	ldr	r1, [fp, #-12]
    a9c8:	e1a00003 	mov	r0, r3
    a9cc:	ebffff2e 	bl	a68c <bit_is_on>
    a9d0:	e1a03000 	mov	r3, r0
    a9d4:	e3530001 	cmp	r3, #1, 0
    a9d8:	03a03001 	moveq	r3, #1, 0
    a9dc:	13a03000 	movne	r3, #0, 0
    a9e0:	e6ef3073 	uxtb	r3, r3
    a9e4:	e1a00003 	mov	r0, r3
    a9e8:	e24bd004 	sub	sp, fp, #4, 0
    a9ec:	e8bd8800 	pop	{fp, pc}

0000a9f0 <pipeid_get>:
    a9f0:	e92d4800 	push	{fp, lr}
    a9f4:	e28db004 	add	fp, sp, #4, 0
    a9f8:	e24dd008 	sub	sp, sp, #8, 0
    a9fc:	e1a03000 	mov	r3, r0
    aa00:	e54b3005 	strb	r3, [fp, #-5]
    aa04:	e55b3005 	ldrb	r3, [fp, #-5]
    aa08:	e3a02003 	mov	r2, #3, 0
    aa0c:	e3a01001 	mov	r1, #1, 0
    aa10:	e1a00003 	mov	r0, r3
    aa14:	ebffff56 	bl	a774 <bits_get>
    aa18:	e1a03000 	mov	r3, r0
    aa1c:	e1a00003 	mov	r0, r3
    aa20:	e24bd004 	sub	sp, fp, #4, 0
    aa24:	e8bd8800 	pop	{fp, pc}

0000aa28 <nrf_rx_get_pipeid>:
    aa28:	e92d4800 	push	{fp, lr}
    aa2c:	e28db004 	add	fp, sp, #4, 0
    aa30:	e24dd008 	sub	sp, sp, #8, 0
    aa34:	e50b0008 	str	r0, [fp, #-8]
    aa38:	e3a01007 	mov	r1, #7, 0
    aa3c:	e51b0008 	ldr	r0, [fp, #-8]
    aa40:	ebfff710 	bl	8688 <nrf_get8>
    aa44:	e1a03000 	mov	r3, r0
    aa48:	e1a00003 	mov	r0, r3
    aa4c:	ebffffe7 	bl	a9f0 <pipeid_get>
    aa50:	e1a03000 	mov	r3, r0
    aa54:	e1a00003 	mov	r0, r3
    aa58:	e24bd004 	sub	sp, fp, #4, 0
    aa5c:	e8bd8800 	pop	{fp, pc}

0000aa60 <nrf_has_max_rt_intr>:
    aa60:	e92d4800 	push	{fp, lr}
    aa64:	e28db004 	add	fp, sp, #4, 0
    aa68:	e24dd008 	sub	sp, sp, #8, 0
    aa6c:	e50b0008 	str	r0, [fp, #-8]
    aa70:	e3a02004 	mov	r2, #4, 0
    aa74:	e3a01007 	mov	r1, #7, 0
    aa78:	e51b0008 	ldr	r0, [fp, #-8]
    aa7c:	ebfff85e 	bl	8bfc <nrf_bit_isset>
    aa80:	e1a03000 	mov	r3, r0
    aa84:	e1a00003 	mov	r0, r3
    aa88:	e24bd004 	sub	sp, fp, #4, 0
    aa8c:	e8bd8800 	pop	{fp, pc}

0000aa90 <nrf_rt_intr_clr>:
    aa90:	e92d4800 	push	{fp, lr}
    aa94:	e28db004 	add	fp, sp, #4, 0
    aa98:	e24dd008 	sub	sp, sp, #8, 0
    aa9c:	e50b0008 	str	r0, [fp, #-8]
    aaa0:	e3a02010 	mov	r2, #16, 0
    aaa4:	e3a01007 	mov	r1, #7, 0
    aaa8:	e51b0008 	ldr	r0, [fp, #-8]
    aaac:	ebfff711 	bl	86f8 <nrf_put8>
    aab0:	e320f000 	nop	{0}
    aab4:	e24bd004 	sub	sp, fp, #4, 0
    aab8:	e8bd8800 	pop	{fp, pc}

0000aabc <nrf_has_tx_intr>:
    aabc:	e92d4800 	push	{fp, lr}
    aac0:	e28db004 	add	fp, sp, #4, 0
    aac4:	e24dd008 	sub	sp, sp, #8, 0
    aac8:	e50b0008 	str	r0, [fp, #-8]
    aacc:	e3a02005 	mov	r2, #5, 0
    aad0:	e3a01007 	mov	r1, #7, 0
    aad4:	e51b0008 	ldr	r0, [fp, #-8]
    aad8:	ebfff847 	bl	8bfc <nrf_bit_isset>
    aadc:	e1a03000 	mov	r3, r0
    aae0:	e1a00003 	mov	r0, r3
    aae4:	e24bd004 	sub	sp, fp, #4, 0
    aae8:	e8bd8800 	pop	{fp, pc}

0000aaec <nrf_tx_intr_clr>:
    aaec:	e92d4800 	push	{fp, lr}
    aaf0:	e28db004 	add	fp, sp, #4, 0
    aaf4:	e24dd008 	sub	sp, sp, #8, 0
    aaf8:	e50b0008 	str	r0, [fp, #-8]
    aafc:	e3a02020 	mov	r2, #32, 0
    ab00:	e3a01007 	mov	r1, #7, 0
    ab04:	e51b0008 	ldr	r0, [fp, #-8]
    ab08:	ebfff6fa 	bl	86f8 <nrf_put8>
    ab0c:	e320f000 	nop	{0}
    ab10:	e24bd004 	sub	sp, fp, #4, 0
    ab14:	e8bd8800 	pop	{fp, pc}

0000ab18 <nrf_rx_intr_clr>:
    ab18:	e92d4800 	push	{fp, lr}
    ab1c:	e28db004 	add	fp, sp, #4, 0
    ab20:	e24dd008 	sub	sp, sp, #8, 0
    ab24:	e50b0008 	str	r0, [fp, #-8]
    ab28:	e3a02040 	mov	r2, #64, 0	; 0x40
    ab2c:	e3a01007 	mov	r1, #7, 0
    ab30:	e51b0008 	ldr	r0, [fp, #-8]
    ab34:	ebfff6ef 	bl	86f8 <nrf_put8>
    ab38:	e320f000 	nop	{0}
    ab3c:	e24bd004 	sub	sp, fp, #4, 0
    ab40:	e8bd8800 	pop	{fp, pc}

0000ab44 <nrf_rx_fifo_empty>:
    ab44:	e92d4800 	push	{fp, lr}
    ab48:	e28db004 	add	fp, sp, #4, 0
    ab4c:	e24dd008 	sub	sp, sp, #8, 0
    ab50:	e50b0008 	str	r0, [fp, #-8]
    ab54:	e3a02000 	mov	r2, #0, 0
    ab58:	e3a01017 	mov	r1, #23, 0
    ab5c:	e51b0008 	ldr	r0, [fp, #-8]
    ab60:	ebfff825 	bl	8bfc <nrf_bit_isset>
    ab64:	e1a03000 	mov	r3, r0
    ab68:	e1a00003 	mov	r0, r3
    ab6c:	e24bd004 	sub	sp, fp, #4, 0
    ab70:	e8bd8800 	pop	{fp, pc}

0000ab74 <nrf_tx_fifo_empty>:
    ab74:	e92d4800 	push	{fp, lr}
    ab78:	e28db004 	add	fp, sp, #4, 0
    ab7c:	e24dd008 	sub	sp, sp, #8, 0
    ab80:	e50b0008 	str	r0, [fp, #-8]
    ab84:	e3a02004 	mov	r2, #4, 0
    ab88:	e3a01017 	mov	r1, #23, 0
    ab8c:	e51b0008 	ldr	r0, [fp, #-8]
    ab90:	ebfff819 	bl	8bfc <nrf_bit_isset>
    ab94:	e1a03000 	mov	r3, r0
    ab98:	e1a00003 	mov	r0, r3
    ab9c:	e24bd004 	sub	sp, fp, #4, 0
    aba0:	e8bd8800 	pop	{fp, pc}

0000aba4 <nrf_rx_has_packet>:
    aba4:	e92d4800 	push	{fp, lr}
    aba8:	e28db004 	add	fp, sp, #4, 0
    abac:	e24dd008 	sub	sp, sp, #8, 0
    abb0:	e50b0008 	str	r0, [fp, #-8]
    abb4:	e51b0008 	ldr	r0, [fp, #-8]
    abb8:	ebffffe1 	bl	ab44 <nrf_rx_fifo_empty>
    abbc:	e1a03000 	mov	r3, r0
    abc0:	e3530000 	cmp	r3, #0, 0
    abc4:	03a03001 	moveq	r3, #1, 0
    abc8:	13a03000 	movne	r3, #0, 0
    abcc:	e6ef3073 	uxtb	r3, r3
    abd0:	e1a00003 	mov	r0, r3
    abd4:	e24bd004 	sub	sp, fp, #4, 0
    abd8:	e8bd8800 	pop	{fp, pc}

0000abdc <nrf_init>:
    abdc:	e92d4810 	push	{r4, fp, lr}
    abe0:	e28db008 	add	fp, sp, #8, 0
    abe4:	e24dd044 	sub	sp, sp, #68, 0	; 0x44
    abe8:	e24bc024 	sub	ip, fp, #36, 0	; 0x24
    abec:	e88c0003 	stm	ip, {r0, r1}
    abf0:	e50b2028 	str	r2, [fp, #-40]	; 0xffffffd8
    abf4:	e50b302c 	str	r3, [fp, #-44]	; 0xffffffd4
    abf8:	e59f051c 	ldr	r0, [pc, #1308]	; b11c <nrf_init+0x540>
    abfc:	eb000c91 	bl	de48 <kmalloc>
    ac00:	e50b0010 	str	r0, [fp, #-16]
    ac04:	e51b3010 	ldr	r3, [fp, #-16]
    ac08:	e24b2024 	sub	r2, fp, #36, 0	; 0x24
    ac0c:	e8920003 	ldm	r2, {r0, r1}
    ac10:	e5830000 	str	r0, [r3]
    ac14:	e2833004 	add	r3, r3, #4, 0
    ac18:	e5c31000 	strb	r1, [r3]
    ac1c:	e51b0010 	ldr	r0, [fp, #-16]
    ac20:	ebfffe6f 	bl	a5e4 <nrf_stat_start>
    ac24:	e55b3023 	ldrb	r3, [fp, #-35]	; 0xffffffdd
    ac28:	e1a01003 	mov	r1, r3
    ac2c:	e55b3024 	ldrb	r3, [fp, #-36]	; 0xffffffdc
    ac30:	e1a02003 	mov	r2, r3
    ac34:	e51b4010 	ldr	r4, [fp, #-16]
    ac38:	e24b3044 	sub	r3, fp, #68, 0	; 0x44
    ac3c:	e1a00003 	mov	r0, r3
    ac40:	ebfff64b 	bl	8574 <pin_init>
    ac44:	e284c008 	add	ip, r4, #8, 0
    ac48:	e24be044 	sub	lr, fp, #68, 0	; 0x44
    ac4c:	e8be000f 	ldm	lr!, {r0, r1, r2, r3}
    ac50:	e8ac000f 	stmia	ip!, {r0, r1, r2, r3}
    ac54:	e89e0003 	ldm	lr, {r0, r1}
    ac58:	e88c0003 	stm	ip, {r0, r1}
    ac5c:	e51b3010 	ldr	r3, [fp, #-16]
    ac60:	e51b2028 	ldr	r2, [fp, #-40]	; 0xffffffd8
    ac64:	e5832020 	str	r2, [r3, #32]
    ac68:	e51b0010 	ldr	r0, [fp, #-16]
    ac6c:	ebfffeff 	bl	a870 <nrf_set_pwrup_off>
    ac70:	e51b0010 	ldr	r0, [fp, #-16]
    ac74:	ebfff8a4 	bl	8f0c <nrf_rx_flush>
    ac78:	e51b0010 	ldr	r0, [fp, #-16]
    ac7c:	ebfff888 	bl	8ea4 <nrf_tx_flush>
    ac80:	e55b3020 	ldrb	r3, [fp, #-32]	; 0xffffffe0
    ac84:	e1a02003 	mov	r2, r3
    ac88:	e3a01005 	mov	r1, #5, 0
    ac8c:	e51b0010 	ldr	r0, [fp, #-16]
    ac90:	ebfff698 	bl	86f8 <nrf_put8>
    ac94:	e3a02001 	mov	r2, #1, 0
    ac98:	e3a01003 	mov	r1, #3, 0
    ac9c:	e51b0010 	ldr	r0, [fp, #-16]
    aca0:	ebfff694 	bl	86f8 <nrf_put8>
    aca4:	e3a0300c 	mov	r3, #12, 0
    aca8:	e50b3014 	str	r3, [fp, #-20]	; 0xffffffec
    acac:	e51b3014 	ldr	r3, [fp, #-20]	; 0xffffffec
    acb0:	e6ef3073 	uxtb	r3, r3
    acb4:	e3833008 	orr	r3, r3, #8, 0
    acb8:	e6ef3073 	uxtb	r3, r3
    acbc:	e1a02003 	mov	r2, r3
    acc0:	e3a01006 	mov	r1, #6, 0
    acc4:	e51b0010 	ldr	r0, [fp, #-16]
    acc8:	ebfff68a 	bl	86f8 <nrf_put8>
    accc:	e3a03086 	mov	r3, #134, 0	; 0x86
    acd0:	e50b3018 	str	r3, [fp, #-24]	; 0xffffffe8
    acd4:	e51b1018 	ldr	r1, [fp, #-24]	; 0xffffffe8
    acd8:	e59f0440 	ldr	r0, [pc, #1088]	; b120 <nrf_init+0x544>
    acdc:	eb00086c 	bl	ce94 <printk>
    ace0:	e51b3018 	ldr	r3, [fp, #-24]	; 0xffffffe8
    ace4:	e6ef3073 	uxtb	r3, r3
    ace8:	e1a02003 	mov	r2, r3
    acec:	e3a01004 	mov	r1, #4, 0
    acf0:	e51b0010 	ldr	r0, [fp, #-16]
    acf4:	ebfff67f 	bl	86f8 <nrf_put8>
    acf8:	e51b302c 	ldr	r3, [fp, #-44]	; 0xffffffd4
    acfc:	e3530000 	cmp	r3, #0, 0
    ad00:	0a000027 	beq	ada4 <nrf_init+0x1c8>
    ad04:	e3a0203f 	mov	r2, #63, 0	; 0x3f
    ad08:	e3a01001 	mov	r1, #1, 0
    ad0c:	e51b0010 	ldr	r0, [fp, #-16]
    ad10:	ebfff678 	bl	86f8 <nrf_put8>
    ad14:	e3a0203f 	mov	r2, #63, 0	; 0x3f
    ad18:	e3a01002 	mov	r1, #2, 0
    ad1c:	e51b0010 	ldr	r0, [fp, #-16]
    ad20:	ebfff674 	bl	86f8 <nrf_put8>
    ad24:	e55b3021 	ldrb	r3, [fp, #-33]	; 0xffffffdf
    ad28:	e1a02003 	mov	r2, r3
    ad2c:	e3a01011 	mov	r1, #17, 0
    ad30:	e51b0010 	ldr	r0, [fp, #-16]
    ad34:	ebfff66f 	bl	86f8 <nrf_put8>
    ad38:	e55b3021 	ldrb	r3, [fp, #-33]	; 0xffffffdf
    ad3c:	e1a02003 	mov	r2, r3
    ad40:	e3a01013 	mov	r1, #19, 0
    ad44:	e51b0010 	ldr	r0, [fp, #-16]
    ad48:	ebfff66a 	bl	86f8 <nrf_put8>
    ad4c:	e55b3021 	ldrb	r3, [fp, #-33]	; 0xffffffdf
    ad50:	e1a02003 	mov	r2, r3
    ad54:	e3a01014 	mov	r1, #20, 0
    ad58:	e51b0010 	ldr	r0, [fp, #-16]
    ad5c:	ebfff665 	bl	86f8 <nrf_put8>
    ad60:	e55b3021 	ldrb	r3, [fp, #-33]	; 0xffffffdf
    ad64:	e1a02003 	mov	r2, r3
    ad68:	e3a01015 	mov	r1, #21, 0
    ad6c:	e51b0010 	ldr	r0, [fp, #-16]
    ad70:	ebfff660 	bl	86f8 <nrf_put8>
    ad74:	e55b3021 	ldrb	r3, [fp, #-33]	; 0xffffffdf
    ad78:	e1a02003 	mov	r2, r3
    ad7c:	e3a01016 	mov	r1, #22, 0
    ad80:	e51b0010 	ldr	r0, [fp, #-16]
    ad84:	ebfff65b 	bl	86f8 <nrf_put8>
    ad88:	e51b3010 	ldr	r3, [fp, #-16]
    ad8c:	e5932020 	ldr	r2, [r3, #32]
    ad90:	e3a03003 	mov	r3, #3, 0
    ad94:	e3a0100a 	mov	r1, #10, 0
    ad98:	e51b0010 	ldr	r0, [fp, #-16]
    ad9c:	ebfff7f4 	bl	8d74 <nrf_set_addr>
    ada0:	ea000007 	b	adc4 <nrf_init+0x1e8>
    ada4:	e3a02000 	mov	r2, #0, 0
    ada8:	e3a01001 	mov	r1, #1, 0
    adac:	e51b0010 	ldr	r0, [fp, #-16]
    adb0:	ebfff650 	bl	86f8 <nrf_put8>
    adb4:	e3a02002 	mov	r2, #2, 0
    adb8:	e3a01002 	mov	r1, #2, 0
    adbc:	e51b0010 	ldr	r0, [fp, #-16]
    adc0:	ebfff64c 	bl	86f8 <nrf_put8>
    adc4:	e55b3021 	ldrb	r3, [fp, #-33]	; 0xffffffdf
    adc8:	e1a02003 	mov	r2, r3
    adcc:	e3a01012 	mov	r1, #18, 0
    add0:	e51b0010 	ldr	r0, [fp, #-16]
    add4:	ebfff647 	bl	86f8 <nrf_put8>
    add8:	e51b3010 	ldr	r3, [fp, #-16]
    addc:	e5932020 	ldr	r2, [r3, #32]
    ade0:	e3a03003 	mov	r3, #3, 0
    ade4:	e3a0100b 	mov	r1, #11, 0
    ade8:	e51b0010 	ldr	r0, [fp, #-16]
    adec:	ebfff7e0 	bl	8d74 <nrf_set_addr>
    adf0:	e3a0207f 	mov	r2, #127, 0	; 0x7f
    adf4:	e3a01000 	mov	r1, #0, 0
    adf8:	e51b0010 	ldr	r0, [fp, #-16]
    adfc:	ebfff63d 	bl	86f8 <nrf_put8>
    ae00:	e51b0010 	ldr	r0, [fp, #-16]
    ae04:	ebffff21 	bl	aa90 <nrf_rt_intr_clr>
    ae08:	e51b0010 	ldr	r0, [fp, #-16]
    ae0c:	ebfffeb3 	bl	a8e0 <nrf_set_pwrup_on>
    ae10:	e55b3023 	ldrb	r3, [fp, #-35]	; 0xffffffdd
    ae14:	e1a00003 	mov	r0, r3
    ae18:	eb000993 	bl	d46c <gpio_set_on>
    ae1c:	e51b302c 	ldr	r3, [fp, #-44]	; 0xffffffd4
    ae20:	e3530000 	cmp	r3, #0, 0
    ae24:	0a000064 	beq	afbc <nrf_init+0x3e0>
    ae28:	e3a01000 	mov	r1, #0, 0
    ae2c:	e51b0010 	ldr	r0, [fp, #-16]
    ae30:	ebfff614 	bl	8688 <nrf_get8>
    ae34:	e1a03000 	mov	r3, r0
    ae38:	e353007f 	cmp	r3, #127, 0	; 0x7f
    ae3c:	0a00000a 	beq	ae6c <nrf_init+0x290>
    ae40:	e51b1010 	ldr	r1, [fp, #-16]
    ae44:	e59f02d8 	ldr	r0, [pc, #728]	; b124 <nrf_init+0x548>
    ae48:	ebfff862 	bl	8fd8 <nrf_dump>
    ae4c:	e59f32d4 	ldr	r3, [pc, #724]	; b128 <nrf_init+0x54c>
    ae50:	e58d3000 	str	r3, [sp]
    ae54:	e3a03049 	mov	r3, #73, 0	; 0x49
    ae58:	e59f22cc 	ldr	r2, [pc, #716]	; b12c <nrf_init+0x550>
    ae5c:	e59f12cc 	ldr	r1, [pc, #716]	; b130 <nrf_init+0x554>
    ae60:	e59f02cc 	ldr	r0, [pc, #716]	; b134 <nrf_init+0x558>
    ae64:	eb00080a 	bl	ce94 <printk>
    ae68:	eb000860 	bl	cff0 <clean_reboot>
    ae6c:	e3a01000 	mov	r1, #0, 0
    ae70:	e51b0010 	ldr	r0, [fp, #-16]
    ae74:	ebfffec9 	bl	a9a0 <nrf_pipe_is_enabled>
    ae78:	e1a03000 	mov	r3, r0
    ae7c:	e3530000 	cmp	r3, #0, 0
    ae80:	1a00000a 	bne	aeb0 <nrf_init+0x2d4>
    ae84:	e51b1010 	ldr	r1, [fp, #-16]
    ae88:	e59f0294 	ldr	r0, [pc, #660]	; b124 <nrf_init+0x548>
    ae8c:	ebfff851 	bl	8fd8 <nrf_dump>
    ae90:	e59f32a0 	ldr	r3, [pc, #672]	; b138 <nrf_init+0x55c>
    ae94:	e58d3000 	str	r3, [sp]
    ae98:	e3a0304a 	mov	r3, #74, 0	; 0x4a
    ae9c:	e59f2288 	ldr	r2, [pc, #648]	; b12c <nrf_init+0x550>
    aea0:	e59f1288 	ldr	r1, [pc, #648]	; b130 <nrf_init+0x554>
    aea4:	e59f0288 	ldr	r0, [pc, #648]	; b134 <nrf_init+0x558>
    aea8:	eb0007f9 	bl	ce94 <printk>
    aeac:	eb00084f 	bl	cff0 <clean_reboot>
    aeb0:	e3a01001 	mov	r1, #1, 0
    aeb4:	e51b0010 	ldr	r0, [fp, #-16]
    aeb8:	ebfffeb8 	bl	a9a0 <nrf_pipe_is_enabled>
    aebc:	e1a03000 	mov	r3, r0
    aec0:	e3530000 	cmp	r3, #0, 0
    aec4:	1a00000a 	bne	aef4 <nrf_init+0x318>
    aec8:	e51b1010 	ldr	r1, [fp, #-16]
    aecc:	e59f0250 	ldr	r0, [pc, #592]	; b124 <nrf_init+0x548>
    aed0:	ebfff840 	bl	8fd8 <nrf_dump>
    aed4:	e59f3260 	ldr	r3, [pc, #608]	; b13c <nrf_init+0x560>
    aed8:	e58d3000 	str	r3, [sp]
    aedc:	e3a0304b 	mov	r3, #75, 0	; 0x4b
    aee0:	e59f2244 	ldr	r2, [pc, #580]	; b12c <nrf_init+0x550>
    aee4:	e59f1244 	ldr	r1, [pc, #580]	; b130 <nrf_init+0x554>
    aee8:	e59f0244 	ldr	r0, [pc, #580]	; b134 <nrf_init+0x558>
    aeec:	eb0007e8 	bl	ce94 <printk>
    aef0:	eb00083e 	bl	cff0 <clean_reboot>
    aef4:	e3a01000 	mov	r1, #0, 0
    aef8:	e51b0010 	ldr	r0, [fp, #-16]
    aefc:	ebfffe93 	bl	a950 <nrf_pipe_is_acked>
    af00:	e1a03000 	mov	r3, r0
    af04:	e3530000 	cmp	r3, #0, 0
    af08:	1a00000a 	bne	af38 <nrf_init+0x35c>
    af0c:	e51b1010 	ldr	r1, [fp, #-16]
    af10:	e59f020c 	ldr	r0, [pc, #524]	; b124 <nrf_init+0x548>
    af14:	ebfff82f 	bl	8fd8 <nrf_dump>
    af18:	e59f3220 	ldr	r3, [pc, #544]	; b140 <nrf_init+0x564>
    af1c:	e58d3000 	str	r3, [sp]
    af20:	e3a0304c 	mov	r3, #76, 0	; 0x4c
    af24:	e59f2200 	ldr	r2, [pc, #512]	; b12c <nrf_init+0x550>
    af28:	e59f1200 	ldr	r1, [pc, #512]	; b130 <nrf_init+0x554>
    af2c:	e59f0200 	ldr	r0, [pc, #512]	; b134 <nrf_init+0x558>
    af30:	eb0007d7 	bl	ce94 <printk>
    af34:	eb00082d 	bl	cff0 <clean_reboot>
    af38:	e3a01001 	mov	r1, #1, 0
    af3c:	e51b0010 	ldr	r0, [fp, #-16]
    af40:	ebfffe82 	bl	a950 <nrf_pipe_is_acked>
    af44:	e1a03000 	mov	r3, r0
    af48:	e3530000 	cmp	r3, #0, 0
    af4c:	1a00000a 	bne	af7c <nrf_init+0x3a0>
    af50:	e51b1010 	ldr	r1, [fp, #-16]
    af54:	e59f01c8 	ldr	r0, [pc, #456]	; b124 <nrf_init+0x548>
    af58:	ebfff81e 	bl	8fd8 <nrf_dump>
    af5c:	e59f31e0 	ldr	r3, [pc, #480]	; b144 <nrf_init+0x568>
    af60:	e58d3000 	str	r3, [sp]
    af64:	e3a0304d 	mov	r3, #77, 0	; 0x4d
    af68:	e59f21bc 	ldr	r2, [pc, #444]	; b12c <nrf_init+0x550>
    af6c:	e59f11bc 	ldr	r1, [pc, #444]	; b130 <nrf_init+0x554>
    af70:	e59f01bc 	ldr	r0, [pc, #444]	; b134 <nrf_init+0x558>
    af74:	eb0007c6 	bl	ce94 <printk>
    af78:	eb00081c 	bl	cff0 <clean_reboot>
    af7c:	e51b0010 	ldr	r0, [fp, #-16]
    af80:	ebfffefb 	bl	ab74 <nrf_tx_fifo_empty>
    af84:	e1a03000 	mov	r3, r0
    af88:	e3530000 	cmp	r3, #0, 0
    af8c:	1a00005e 	bne	b10c <nrf_init+0x530>
    af90:	e51b1010 	ldr	r1, [fp, #-16]
    af94:	e59f0188 	ldr	r0, [pc, #392]	; b124 <nrf_init+0x548>
    af98:	ebfff80e 	bl	8fd8 <nrf_dump>
    af9c:	e59f31a4 	ldr	r3, [pc, #420]	; b148 <nrf_init+0x56c>
    afa0:	e58d3000 	str	r3, [sp]
    afa4:	e3a0304e 	mov	r3, #78, 0	; 0x4e
    afa8:	e59f217c 	ldr	r2, [pc, #380]	; b12c <nrf_init+0x550>
    afac:	e59f117c 	ldr	r1, [pc, #380]	; b130 <nrf_init+0x554>
    afb0:	e59f017c 	ldr	r0, [pc, #380]	; b134 <nrf_init+0x558>
    afb4:	eb0007b6 	bl	ce94 <printk>
    afb8:	eb00080c 	bl	cff0 <clean_reboot>
    afbc:	e3a01000 	mov	r1, #0, 0
    afc0:	e51b0010 	ldr	r0, [fp, #-16]
    afc4:	ebfff5af 	bl	8688 <nrf_get8>
    afc8:	e1a03000 	mov	r3, r0
    afcc:	e353007f 	cmp	r3, #127, 0	; 0x7f
    afd0:	0a00000a 	beq	b000 <nrf_init+0x424>
    afd4:	e51b1010 	ldr	r1, [fp, #-16]
    afd8:	e59f0144 	ldr	r0, [pc, #324]	; b124 <nrf_init+0x548>
    afdc:	ebfff7fd 	bl	8fd8 <nrf_dump>
    afe0:	e59f3140 	ldr	r3, [pc, #320]	; b128 <nrf_init+0x54c>
    afe4:	e58d3000 	str	r3, [sp]
    afe8:	e3a03050 	mov	r3, #80, 0	; 0x50
    afec:	e59f2138 	ldr	r2, [pc, #312]	; b12c <nrf_init+0x550>
    aff0:	e59f1138 	ldr	r1, [pc, #312]	; b130 <nrf_init+0x554>
    aff4:	e59f0138 	ldr	r0, [pc, #312]	; b134 <nrf_init+0x558>
    aff8:	eb0007a5 	bl	ce94 <printk>
    affc:	eb0007fb 	bl	cff0 <clean_reboot>
    b000:	e3a01000 	mov	r1, #0, 0
    b004:	e51b0010 	ldr	r0, [fp, #-16]
    b008:	ebfffe64 	bl	a9a0 <nrf_pipe_is_enabled>
    b00c:	e1a03000 	mov	r3, r0
    b010:	e3530000 	cmp	r3, #0, 0
    b014:	0a00000a 	beq	b044 <nrf_init+0x468>
    b018:	e51b1010 	ldr	r1, [fp, #-16]
    b01c:	e59f0100 	ldr	r0, [pc, #256]	; b124 <nrf_init+0x548>
    b020:	ebfff7ec 	bl	8fd8 <nrf_dump>
    b024:	e59f3120 	ldr	r3, [pc, #288]	; b14c <nrf_init+0x570>
    b028:	e58d3000 	str	r3, [sp]
    b02c:	e3a03051 	mov	r3, #81, 0	; 0x51
    b030:	e59f20f4 	ldr	r2, [pc, #244]	; b12c <nrf_init+0x550>
    b034:	e59f10f4 	ldr	r1, [pc, #244]	; b130 <nrf_init+0x554>
    b038:	e59f00f4 	ldr	r0, [pc, #244]	; b134 <nrf_init+0x558>
    b03c:	eb000794 	bl	ce94 <printk>
    b040:	eb0007ea 	bl	cff0 <clean_reboot>
    b044:	e3a01001 	mov	r1, #1, 0
    b048:	e51b0010 	ldr	r0, [fp, #-16]
    b04c:	ebfffe53 	bl	a9a0 <nrf_pipe_is_enabled>
    b050:	e1a03000 	mov	r3, r0
    b054:	e3530000 	cmp	r3, #0, 0
    b058:	1a00000a 	bne	b088 <nrf_init+0x4ac>
    b05c:	e51b1010 	ldr	r1, [fp, #-16]
    b060:	e59f00bc 	ldr	r0, [pc, #188]	; b124 <nrf_init+0x548>
    b064:	ebfff7db 	bl	8fd8 <nrf_dump>
    b068:	e59f30cc 	ldr	r3, [pc, #204]	; b13c <nrf_init+0x560>
    b06c:	e58d3000 	str	r3, [sp]
    b070:	e3a03052 	mov	r3, #82, 0	; 0x52
    b074:	e59f20b0 	ldr	r2, [pc, #176]	; b12c <nrf_init+0x550>
    b078:	e59f10b0 	ldr	r1, [pc, #176]	; b130 <nrf_init+0x554>
    b07c:	e59f00b0 	ldr	r0, [pc, #176]	; b134 <nrf_init+0x558>
    b080:	eb000783 	bl	ce94 <printk>
    b084:	eb0007d9 	bl	cff0 <clean_reboot>
    b088:	e3a01001 	mov	r1, #1, 0
    b08c:	e51b0010 	ldr	r0, [fp, #-16]
    b090:	ebfffe2e 	bl	a950 <nrf_pipe_is_acked>
    b094:	e1a03000 	mov	r3, r0
    b098:	e3530000 	cmp	r3, #0, 0
    b09c:	0a00000a 	beq	b0cc <nrf_init+0x4f0>
    b0a0:	e51b1010 	ldr	r1, [fp, #-16]
    b0a4:	e59f0078 	ldr	r0, [pc, #120]	; b124 <nrf_init+0x548>
    b0a8:	ebfff7ca 	bl	8fd8 <nrf_dump>
    b0ac:	e59f309c 	ldr	r3, [pc, #156]	; b150 <nrf_init+0x574>
    b0b0:	e58d3000 	str	r3, [sp]
    b0b4:	e3a03053 	mov	r3, #83, 0	; 0x53
    b0b8:	e59f206c 	ldr	r2, [pc, #108]	; b12c <nrf_init+0x550>
    b0bc:	e59f106c 	ldr	r1, [pc, #108]	; b130 <nrf_init+0x554>
    b0c0:	e59f006c 	ldr	r0, [pc, #108]	; b134 <nrf_init+0x558>
    b0c4:	eb000772 	bl	ce94 <printk>
    b0c8:	eb0007c8 	bl	cff0 <clean_reboot>
    b0cc:	e51b0010 	ldr	r0, [fp, #-16]
    b0d0:	ebfffea7 	bl	ab74 <nrf_tx_fifo_empty>
    b0d4:	e1a03000 	mov	r3, r0
    b0d8:	e3530000 	cmp	r3, #0, 0
    b0dc:	1a00000a 	bne	b10c <nrf_init+0x530>
    b0e0:	e51b1010 	ldr	r1, [fp, #-16]
    b0e4:	e59f0038 	ldr	r0, [pc, #56]	; b124 <nrf_init+0x548>
    b0e8:	ebfff7ba 	bl	8fd8 <nrf_dump>
    b0ec:	e59f3054 	ldr	r3, [pc, #84]	; b148 <nrf_init+0x56c>
    b0f0:	e58d3000 	str	r3, [sp]
    b0f4:	e3a03054 	mov	r3, #84, 0	; 0x54
    b0f8:	e59f202c 	ldr	r2, [pc, #44]	; b12c <nrf_init+0x550>
    b0fc:	e59f102c 	ldr	r1, [pc, #44]	; b130 <nrf_init+0x554>
    b100:	e59f002c 	ldr	r0, [pc, #44]	; b134 <nrf_init+0x558>
    b104:	eb000762 	bl	ce94 <printk>
    b108:	eb0007b8 	bl	cff0 <clean_reboot>
    b10c:	e51b3010 	ldr	r3, [fp, #-16]
    b110:	e1a00003 	mov	r0, r3
    b114:	e24bd008 	sub	sp, fp, #8, 0
    b118:	e8bd8810 	pop	{r4, fp, pc}
    b11c:	00002058 	.word	0x00002058
    b120:	0000eb40 	.word	0x0000eb40
    b124:	0000eb58 	.word	0x0000eb58
    b128:	0000eb90 	.word	0x0000eb90
    b12c:	0000ecc4 	.word	0x0000ecc4
    b130:	0000eb6c 	.word	0x0000eb6c
    b134:	0000eb7c 	.word	0x0000eb7c
    b138:	0000ebb8 	.word	0x0000ebb8
    b13c:	0000ebd4 	.word	0x0000ebd4
    b140:	0000ebf0 	.word	0x0000ebf0
    b144:	0000ec08 	.word	0x0000ec08
    b148:	0000ec20 	.word	0x0000ec20
    b14c:	0000ec38 	.word	0x0000ec38
    b150:	0000ec54 	.word	0x0000ec54

0000b154 <nrf_tx_send_ack>:
    b154:	e92d4800 	push	{fp, lr}
    b158:	e28db004 	add	fp, sp, #4, 0
    b15c:	e24dd028 	sub	sp, sp, #40, 0	; 0x28
    b160:	e50b0018 	str	r0, [fp, #-24]	; 0xffffffe8
    b164:	e50b101c 	str	r1, [fp, #-28]	; 0xffffffe4
    b168:	e50b2020 	str	r2, [fp, #-32]	; 0xffffffe0
    b16c:	e50b3024 	str	r3, [fp, #-36]	; 0xffffffdc
    b170:	e3a01000 	mov	r1, #0, 0
    b174:	e51b0018 	ldr	r0, [fp, #-24]	; 0xffffffe8
    b178:	ebfff542 	bl	8688 <nrf_get8>
    b17c:	e1a03000 	mov	r3, r0
    b180:	e353007f 	cmp	r3, #127, 0	; 0x7f
    b184:	0a00000a 	beq	b1b4 <nrf_tx_send_ack+0x60>
    b188:	e51b1018 	ldr	r1, [fp, #-24]	; 0xffffffe8
    b18c:	e59f0370 	ldr	r0, [pc, #880]	; b504 <nrf_tx_send_ack+0x3b0>
    b190:	ebfff790 	bl	8fd8 <nrf_dump>
    b194:	e59f336c 	ldr	r3, [pc, #876]	; b508 <nrf_tx_send_ack+0x3b4>
    b198:	e58d3000 	str	r3, [sp]
    b19c:	e3a0305d 	mov	r3, #93, 0	; 0x5d
    b1a0:	e59f2364 	ldr	r2, [pc, #868]	; b50c <nrf_tx_send_ack+0x3b8>
    b1a4:	e59f1364 	ldr	r1, [pc, #868]	; b510 <nrf_tx_send_ack+0x3bc>
    b1a8:	e59f0364 	ldr	r0, [pc, #868]	; b514 <nrf_tx_send_ack+0x3c0>
    b1ac:	eb000738 	bl	ce94 <printk>
    b1b0:	eb00078e 	bl	cff0 <clean_reboot>
    b1b4:	e3a01000 	mov	r1, #0, 0
    b1b8:	e51b0018 	ldr	r0, [fp, #-24]	; 0xffffffe8
    b1bc:	ebfffdf7 	bl	a9a0 <nrf_pipe_is_enabled>
    b1c0:	e1a03000 	mov	r3, r0
    b1c4:	e3530000 	cmp	r3, #0, 0
    b1c8:	1a00000a 	bne	b1f8 <nrf_tx_send_ack+0xa4>
    b1cc:	e51b1018 	ldr	r1, [fp, #-24]	; 0xffffffe8
    b1d0:	e59f032c 	ldr	r0, [pc, #812]	; b504 <nrf_tx_send_ack+0x3b0>
    b1d4:	ebfff77f 	bl	8fd8 <nrf_dump>
    b1d8:	e59f3338 	ldr	r3, [pc, #824]	; b518 <nrf_tx_send_ack+0x3c4>
    b1dc:	e58d3000 	str	r3, [sp]
    b1e0:	e3a0305e 	mov	r3, #94, 0	; 0x5e
    b1e4:	e59f2320 	ldr	r2, [pc, #800]	; b50c <nrf_tx_send_ack+0x3b8>
    b1e8:	e59f1320 	ldr	r1, [pc, #800]	; b510 <nrf_tx_send_ack+0x3bc>
    b1ec:	e59f0320 	ldr	r0, [pc, #800]	; b514 <nrf_tx_send_ack+0x3c0>
    b1f0:	eb000727 	bl	ce94 <printk>
    b1f4:	eb00077d 	bl	cff0 <clean_reboot>
    b1f8:	e3a01001 	mov	r1, #1, 0
    b1fc:	e51b0018 	ldr	r0, [fp, #-24]	; 0xffffffe8
    b200:	ebfffde6 	bl	a9a0 <nrf_pipe_is_enabled>
    b204:	e1a03000 	mov	r3, r0
    b208:	e3530000 	cmp	r3, #0, 0
    b20c:	1a00000a 	bne	b23c <nrf_tx_send_ack+0xe8>
    b210:	e51b1018 	ldr	r1, [fp, #-24]	; 0xffffffe8
    b214:	e59f02e8 	ldr	r0, [pc, #744]	; b504 <nrf_tx_send_ack+0x3b0>
    b218:	ebfff76e 	bl	8fd8 <nrf_dump>
    b21c:	e59f32f8 	ldr	r3, [pc, #760]	; b51c <nrf_tx_send_ack+0x3c8>
    b220:	e58d3000 	str	r3, [sp]
    b224:	e3a0305f 	mov	r3, #95, 0	; 0x5f
    b228:	e59f22dc 	ldr	r2, [pc, #732]	; b50c <nrf_tx_send_ack+0x3b8>
    b22c:	e59f12dc 	ldr	r1, [pc, #732]	; b510 <nrf_tx_send_ack+0x3bc>
    b230:	e59f02dc 	ldr	r0, [pc, #732]	; b514 <nrf_tx_send_ack+0x3c0>
    b234:	eb000716 	bl	ce94 <printk>
    b238:	eb00076c 	bl	cff0 <clean_reboot>
    b23c:	e3a01000 	mov	r1, #0, 0
    b240:	e51b0018 	ldr	r0, [fp, #-24]	; 0xffffffe8
    b244:	ebfffdc1 	bl	a950 <nrf_pipe_is_acked>
    b248:	e1a03000 	mov	r3, r0
    b24c:	e3530000 	cmp	r3, #0, 0
    b250:	1a00000a 	bne	b280 <nrf_tx_send_ack+0x12c>
    b254:	e51b1018 	ldr	r1, [fp, #-24]	; 0xffffffe8
    b258:	e59f02a4 	ldr	r0, [pc, #676]	; b504 <nrf_tx_send_ack+0x3b0>
    b25c:	ebfff75d 	bl	8fd8 <nrf_dump>
    b260:	e59f32b8 	ldr	r3, [pc, #696]	; b520 <nrf_tx_send_ack+0x3cc>
    b264:	e58d3000 	str	r3, [sp]
    b268:	e3a03060 	mov	r3, #96, 0	; 0x60
    b26c:	e59f2298 	ldr	r2, [pc, #664]	; b50c <nrf_tx_send_ack+0x3b8>
    b270:	e59f1298 	ldr	r1, [pc, #664]	; b510 <nrf_tx_send_ack+0x3bc>
    b274:	e59f0298 	ldr	r0, [pc, #664]	; b514 <nrf_tx_send_ack+0x3c0>
    b278:	eb000705 	bl	ce94 <printk>
    b27c:	eb00075b 	bl	cff0 <clean_reboot>
    b280:	e3a01001 	mov	r1, #1, 0
    b284:	e51b0018 	ldr	r0, [fp, #-24]	; 0xffffffe8
    b288:	ebfffdb0 	bl	a950 <nrf_pipe_is_acked>
    b28c:	e1a03000 	mov	r3, r0
    b290:	e3530000 	cmp	r3, #0, 0
    b294:	1a00000a 	bne	b2c4 <nrf_tx_send_ack+0x170>
    b298:	e51b1018 	ldr	r1, [fp, #-24]	; 0xffffffe8
    b29c:	e59f0260 	ldr	r0, [pc, #608]	; b504 <nrf_tx_send_ack+0x3b0>
    b2a0:	ebfff74c 	bl	8fd8 <nrf_dump>
    b2a4:	e59f3278 	ldr	r3, [pc, #632]	; b524 <nrf_tx_send_ack+0x3d0>
    b2a8:	e58d3000 	str	r3, [sp]
    b2ac:	e3a03061 	mov	r3, #97, 0	; 0x61
    b2b0:	e59f2254 	ldr	r2, [pc, #596]	; b50c <nrf_tx_send_ack+0x3b8>
    b2b4:	e59f1254 	ldr	r1, [pc, #596]	; b510 <nrf_tx_send_ack+0x3bc>
    b2b8:	e59f0254 	ldr	r0, [pc, #596]	; b514 <nrf_tx_send_ack+0x3c0>
    b2bc:	eb0006f4 	bl	ce94 <printk>
    b2c0:	eb00074a 	bl	cff0 <clean_reboot>
    b2c4:	e51b0018 	ldr	r0, [fp, #-24]	; 0xffffffe8
    b2c8:	ebfffe29 	bl	ab74 <nrf_tx_fifo_empty>
    b2cc:	e1a03000 	mov	r3, r0
    b2d0:	e3530000 	cmp	r3, #0, 0
    b2d4:	1a00000a 	bne	b304 <nrf_tx_send_ack+0x1b0>
    b2d8:	e51b1018 	ldr	r1, [fp, #-24]	; 0xffffffe8
    b2dc:	e59f0220 	ldr	r0, [pc, #544]	; b504 <nrf_tx_send_ack+0x3b0>
    b2e0:	ebfff73c 	bl	8fd8 <nrf_dump>
    b2e4:	e59f323c 	ldr	r3, [pc, #572]	; b528 <nrf_tx_send_ack+0x3d4>
    b2e8:	e58d3000 	str	r3, [sp]
    b2ec:	e3a03062 	mov	r3, #98, 0	; 0x62
    b2f0:	e59f2214 	ldr	r2, [pc, #532]	; b50c <nrf_tx_send_ack+0x3b8>
    b2f4:	e59f1214 	ldr	r1, [pc, #532]	; b510 <nrf_tx_send_ack+0x3bc>
    b2f8:	e59f0214 	ldr	r0, [pc, #532]	; b514 <nrf_tx_send_ack+0x3c0>
    b2fc:	eb0006e4 	bl	ce94 <printk>
    b300:	eb00073a 	bl	cff0 <clean_reboot>
    b304:	e320f000 	nop	{0}
    b308:	e51b0018 	ldr	r0, [fp, #-24]	; 0xffffffe8
    b30c:	eb00014a 	bl	b83c <nrf_get_pkts>
    b310:	e1a03000 	mov	r3, r0
    b314:	e3530000 	cmp	r3, #0, 0
    b318:	1afffffa 	bne	b308 <nrf_tx_send_ack+0x1b4>
    b31c:	e51b3018 	ldr	r3, [fp, #-24]	; 0xffffffe8
    b320:	e5d33001 	ldrb	r3, [r3, #1]
    b324:	e1a00003 	mov	r0, r3
    b328:	eb000867 	bl	d4cc <gpio_set_off>
    b32c:	e3a000c8 	mov	r0, #200, 0	; 0xc8
    b330:	eb0007d2 	bl	d280 <delay_us>
    b334:	e3a02000 	mov	r2, #0, 0
    b338:	e3a01000 	mov	r1, #0, 0
    b33c:	e51b0018 	ldr	r0, [fp, #-24]	; 0xffffffe8
    b340:	ebfff5cf 	bl	8a84 <nrf_bit_clr>
    b344:	e3a03003 	mov	r3, #3, 0
    b348:	e51b201c 	ldr	r2, [fp, #-28]	; 0xffffffe4
    b34c:	e3a01010 	mov	r1, #16, 0
    b350:	e51b0018 	ldr	r0, [fp, #-24]	; 0xffffffe8
    b354:	ebfff686 	bl	8d74 <nrf_set_addr>
    b358:	e3a02003 	mov	r2, #3, 0
    b35c:	e3a0100a 	mov	r1, #10, 0
    b360:	e51b0018 	ldr	r0, [fp, #-24]	; 0xffffffe8
    b364:	ebfff64d 	bl	8ca0 <nrf_get_addr>
    b368:	e50b0008 	str	r0, [fp, #-8]
    b36c:	e3a03003 	mov	r3, #3, 0
    b370:	e51b201c 	ldr	r2, [fp, #-28]	; 0xffffffe4
    b374:	e3a0100a 	mov	r1, #10, 0
    b378:	e51b0018 	ldr	r0, [fp, #-24]	; 0xffffffe8
    b37c:	ebfff67c 	bl	8d74 <nrf_set_addr>
    b380:	e51b3024 	ldr	r3, [fp, #-36]	; 0xffffffdc
    b384:	e51b2020 	ldr	r2, [fp, #-32]	; 0xffffffe0
    b388:	e3a010a0 	mov	r1, #160, 0	; 0xa0
    b38c:	e51b0018 	ldr	r0, [fp, #-24]	; 0xffffffe8
    b390:	ebfff564 	bl	8928 <nrf_putn>
    b394:	e51b3018 	ldr	r3, [fp, #-24]	; 0xffffffe8
    b398:	e5d33001 	ldrb	r3, [r3, #1]
    b39c:	e1a00003 	mov	r0, r3
    b3a0:	eb000831 	bl	d46c <gpio_set_on>
    b3a4:	e3a0001e 	mov	r0, #30, 0
    b3a8:	eb0007b4 	bl	d280 <delay_us>
    b3ac:	e320f000 	nop	{0}
    b3b0:	e51b0018 	ldr	r0, [fp, #-24]	; 0xffffffe8
    b3b4:	ebfffdee 	bl	ab74 <nrf_tx_fifo_empty>
    b3b8:	e1a03000 	mov	r3, r0
    b3bc:	e3530000 	cmp	r3, #0, 0
    b3c0:	0afffffa 	beq	b3b0 <nrf_tx_send_ack+0x25c>
    b3c4:	e51b0018 	ldr	r0, [fp, #-24]	; 0xffffffe8
    b3c8:	ebfffdbb 	bl	aabc <nrf_has_tx_intr>
    b3cc:	e50b000c 	str	r0, [fp, #-12]
    b3d0:	e51b0018 	ldr	r0, [fp, #-24]	; 0xffffffe8
    b3d4:	ebfffdc4 	bl	aaec <nrf_tx_intr_clr>
    b3d8:	e51b0018 	ldr	r0, [fp, #-24]	; 0xffffffe8
    b3dc:	ebfffd9f 	bl	aa60 <nrf_has_max_rt_intr>
    b3e0:	e50b0010 	str	r0, [fp, #-16]
    b3e4:	e51b0018 	ldr	r0, [fp, #-24]	; 0xffffffe8
    b3e8:	ebfffda8 	bl	aa90 <nrf_rt_intr_clr>
    b3ec:	e51b3010 	ldr	r3, [fp, #-16]
    b3f0:	e3530000 	cmp	r3, #0, 0
    b3f4:	1a000002 	bne	b404 <nrf_tx_send_ack+0x2b0>
    b3f8:	e51b300c 	ldr	r3, [fp, #-12]
    b3fc:	e3530000 	cmp	r3, #0, 0
    b400:	1a000005 	bne	b41c <nrf_tx_send_ack+0x2c8>
    b404:	e3a03086 	mov	r3, #134, 0	; 0x86
    b408:	e59f20fc 	ldr	r2, [pc, #252]	; b50c <nrf_tx_send_ack+0x3b8>
    b40c:	e59f10fc 	ldr	r1, [pc, #252]	; b510 <nrf_tx_send_ack+0x3bc>
    b410:	e59f0114 	ldr	r0, [pc, #276]	; b52c <nrf_tx_send_ack+0x3d8>
    b414:	eb00069e 	bl	ce94 <printk>
    b418:	eb0006f4 	bl	cff0 <clean_reboot>
    b41c:	e51b3018 	ldr	r3, [fp, #-24]	; 0xffffffe8
    b420:	e5d33001 	ldrb	r3, [r3, #1]
    b424:	e1a00003 	mov	r0, r3
    b428:	eb000827 	bl	d4cc <gpio_set_off>
    b42c:	e51b0018 	ldr	r0, [fp, #-24]	; 0xffffffe8
    b430:	ebfffdad 	bl	aaec <nrf_tx_intr_clr>
    b434:	e51b3018 	ldr	r3, [fp, #-24]	; 0xffffffe8
    b438:	e5d33001 	ldrb	r3, [r3, #1]
    b43c:	e1a00003 	mov	r0, r3
    b440:	eb000809 	bl	d46c <gpio_set_on>
    b444:	e3a03003 	mov	r3, #3, 0
    b448:	e51b2008 	ldr	r2, [fp, #-8]
    b44c:	e3a0100a 	mov	r1, #10, 0
    b450:	e51b0018 	ldr	r0, [fp, #-24]	; 0xffffffe8
    b454:	ebfff646 	bl	8d74 <nrf_set_addr>
    b458:	e3a02000 	mov	r2, #0, 0
    b45c:	e3a01000 	mov	r1, #0, 0
    b460:	e51b0018 	ldr	r0, [fp, #-24]	; 0xffffffe8
    b464:	ebfff5b5 	bl	8b40 <nrf_bit_set>
    b468:	e3a000c8 	mov	r0, #200, 0	; 0xc8
    b46c:	eb000783 	bl	d280 <delay_us>
    b470:	e51b0018 	ldr	r0, [fp, #-24]	; 0xffffffe8
    b474:	ebfffd90 	bl	aabc <nrf_has_tx_intr>
    b478:	e1a03000 	mov	r3, r0
    b47c:	e3530000 	cmp	r3, #0, 0
    b480:	0a00000a 	beq	b4b0 <nrf_tx_send_ack+0x35c>
    b484:	e51b1018 	ldr	r1, [fp, #-24]	; 0xffffffe8
    b488:	e59f0074 	ldr	r0, [pc, #116]	; b504 <nrf_tx_send_ack+0x3b0>
    b48c:	ebfff6d1 	bl	8fd8 <nrf_dump>
    b490:	e59f3098 	ldr	r3, [pc, #152]	; b530 <nrf_tx_send_ack+0x3dc>
    b494:	e58d3000 	str	r3, [sp]
    b498:	e3a03094 	mov	r3, #148, 0	; 0x94
    b49c:	e59f2068 	ldr	r2, [pc, #104]	; b50c <nrf_tx_send_ack+0x3b8>
    b4a0:	e59f1068 	ldr	r1, [pc, #104]	; b510 <nrf_tx_send_ack+0x3bc>
    b4a4:	e59f0068 	ldr	r0, [pc, #104]	; b514 <nrf_tx_send_ack+0x3c0>
    b4a8:	eb000679 	bl	ce94 <printk>
    b4ac:	eb0006cf 	bl	cff0 <clean_reboot>
    b4b0:	e3a01000 	mov	r1, #0, 0
    b4b4:	e51b0018 	ldr	r0, [fp, #-24]	; 0xffffffe8
    b4b8:	ebfff472 	bl	8688 <nrf_get8>
    b4bc:	e1a03000 	mov	r3, r0
    b4c0:	e353007f 	cmp	r3, #127, 0	; 0x7f
    b4c4:	0a00000a 	beq	b4f4 <nrf_tx_send_ack+0x3a0>
    b4c8:	e51b1018 	ldr	r1, [fp, #-24]	; 0xffffffe8
    b4cc:	e59f0030 	ldr	r0, [pc, #48]	; b504 <nrf_tx_send_ack+0x3b0>
    b4d0:	ebfff6c0 	bl	8fd8 <nrf_dump>
    b4d4:	e59f302c 	ldr	r3, [pc, #44]	; b508 <nrf_tx_send_ack+0x3b4>
    b4d8:	e58d3000 	str	r3, [sp]
    b4dc:	e3a03096 	mov	r3, #150, 0	; 0x96
    b4e0:	e59f2024 	ldr	r2, [pc, #36]	; b50c <nrf_tx_send_ack+0x3b8>
    b4e4:	e59f1024 	ldr	r1, [pc, #36]	; b510 <nrf_tx_send_ack+0x3bc>
    b4e8:	e59f0024 	ldr	r0, [pc, #36]	; b514 <nrf_tx_send_ack+0x3c0>
    b4ec:	eb000668 	bl	ce94 <printk>
    b4f0:	eb0006be 	bl	cff0 <clean_reboot>
    b4f4:	e51b3024 	ldr	r3, [fp, #-36]	; 0xffffffdc
    b4f8:	e1a00003 	mov	r0, r3
    b4fc:	e24bd004 	sub	sp, fp, #4, 0
    b500:	e8bd8800 	pop	{fp, pc}
    b504:	0000eb58 	.word	0x0000eb58
    b508:	0000eb90 	.word	0x0000eb90
    b50c:	0000ed04 	.word	0x0000ed04
    b510:	0000eb6c 	.word	0x0000eb6c
    b514:	0000eb7c 	.word	0x0000eb7c
    b518:	0000ebb8 	.word	0x0000ebb8
    b51c:	0000ebd4 	.word	0x0000ebd4
    b520:	0000ebf0 	.word	0x0000ebf0
    b524:	0000ec08 	.word	0x0000ec08
    b528:	0000ec20 	.word	0x0000ec20
    b52c:	0000ec70 	.word	0x0000ec70
    b530:	0000ec98 	.word	0x0000ec98

0000b534 <nrf_tx_send_noack>:
    b534:	e92d4800 	push	{fp, lr}
    b538:	e28db004 	add	fp, sp, #4, 0
    b53c:	e24dd018 	sub	sp, sp, #24, 0
    b540:	e50b0008 	str	r0, [fp, #-8]
    b544:	e50b100c 	str	r1, [fp, #-12]
    b548:	e50b2010 	str	r2, [fp, #-16]
    b54c:	e50b3014 	str	r3, [fp, #-20]	; 0xffffffec
    b550:	e3a01000 	mov	r1, #0, 0
    b554:	e51b0008 	ldr	r0, [fp, #-8]
    b558:	ebfff44a 	bl	8688 <nrf_get8>
    b55c:	e1a03000 	mov	r3, r0
    b560:	e353007f 	cmp	r3, #127, 0	; 0x7f
    b564:	0a00000a 	beq	b594 <nrf_tx_send_noack+0x60>
    b568:	e51b1008 	ldr	r1, [fp, #-8]
    b56c:	e59f02a0 	ldr	r0, [pc, #672]	; b814 <nrf_tx_send_noack+0x2e0>
    b570:	ebfff698 	bl	8fd8 <nrf_dump>
    b574:	e59f329c 	ldr	r3, [pc, #668]	; b818 <nrf_tx_send_noack+0x2e4>
    b578:	e58d3000 	str	r3, [sp]
    b57c:	e3a0309e 	mov	r3, #158, 0	; 0x9e
    b580:	e59f2294 	ldr	r2, [pc, #660]	; b81c <nrf_tx_send_noack+0x2e8>
    b584:	e59f1294 	ldr	r1, [pc, #660]	; b820 <nrf_tx_send_noack+0x2ec>
    b588:	e59f0294 	ldr	r0, [pc, #660]	; b824 <nrf_tx_send_noack+0x2f0>
    b58c:	eb000640 	bl	ce94 <printk>
    b590:	eb000696 	bl	cff0 <clean_reboot>
    b594:	e3a01000 	mov	r1, #0, 0
    b598:	e51b0008 	ldr	r0, [fp, #-8]
    b59c:	ebfffcff 	bl	a9a0 <nrf_pipe_is_enabled>
    b5a0:	e1a03000 	mov	r3, r0
    b5a4:	e3530000 	cmp	r3, #0, 0
    b5a8:	0a00000a 	beq	b5d8 <nrf_tx_send_noack+0xa4>
    b5ac:	e51b1008 	ldr	r1, [fp, #-8]
    b5b0:	e59f025c 	ldr	r0, [pc, #604]	; b814 <nrf_tx_send_noack+0x2e0>
    b5b4:	ebfff687 	bl	8fd8 <nrf_dump>
    b5b8:	e59f3268 	ldr	r3, [pc, #616]	; b828 <nrf_tx_send_noack+0x2f4>
    b5bc:	e58d3000 	str	r3, [sp]
    b5c0:	e3a0309f 	mov	r3, #159, 0	; 0x9f
    b5c4:	e59f2250 	ldr	r2, [pc, #592]	; b81c <nrf_tx_send_noack+0x2e8>
    b5c8:	e59f1250 	ldr	r1, [pc, #592]	; b820 <nrf_tx_send_noack+0x2ec>
    b5cc:	e59f0250 	ldr	r0, [pc, #592]	; b824 <nrf_tx_send_noack+0x2f0>
    b5d0:	eb00062f 	bl	ce94 <printk>
    b5d4:	eb000685 	bl	cff0 <clean_reboot>
    b5d8:	e3a01001 	mov	r1, #1, 0
    b5dc:	e51b0008 	ldr	r0, [fp, #-8]
    b5e0:	ebfffcee 	bl	a9a0 <nrf_pipe_is_enabled>
    b5e4:	e1a03000 	mov	r3, r0
    b5e8:	e3530000 	cmp	r3, #0, 0
    b5ec:	1a00000a 	bne	b61c <nrf_tx_send_noack+0xe8>
    b5f0:	e51b1008 	ldr	r1, [fp, #-8]
    b5f4:	e59f0218 	ldr	r0, [pc, #536]	; b814 <nrf_tx_send_noack+0x2e0>
    b5f8:	ebfff676 	bl	8fd8 <nrf_dump>
    b5fc:	e59f3228 	ldr	r3, [pc, #552]	; b82c <nrf_tx_send_noack+0x2f8>
    b600:	e58d3000 	str	r3, [sp]
    b604:	e3a030a0 	mov	r3, #160, 0	; 0xa0
    b608:	e59f220c 	ldr	r2, [pc, #524]	; b81c <nrf_tx_send_noack+0x2e8>
    b60c:	e59f120c 	ldr	r1, [pc, #524]	; b820 <nrf_tx_send_noack+0x2ec>
    b610:	e59f020c 	ldr	r0, [pc, #524]	; b824 <nrf_tx_send_noack+0x2f0>
    b614:	eb00061e 	bl	ce94 <printk>
    b618:	eb000674 	bl	cff0 <clean_reboot>
    b61c:	e3a01001 	mov	r1, #1, 0
    b620:	e51b0008 	ldr	r0, [fp, #-8]
    b624:	ebfffcc9 	bl	a950 <nrf_pipe_is_acked>
    b628:	e1a03000 	mov	r3, r0
    b62c:	e3530000 	cmp	r3, #0, 0
    b630:	0a00000a 	beq	b660 <nrf_tx_send_noack+0x12c>
    b634:	e51b1008 	ldr	r1, [fp, #-8]
    b638:	e59f01d4 	ldr	r0, [pc, #468]	; b814 <nrf_tx_send_noack+0x2e0>
    b63c:	ebfff665 	bl	8fd8 <nrf_dump>
    b640:	e59f31e8 	ldr	r3, [pc, #488]	; b830 <nrf_tx_send_noack+0x2fc>
    b644:	e58d3000 	str	r3, [sp]
    b648:	e3a030a1 	mov	r3, #161, 0	; 0xa1
    b64c:	e59f21c8 	ldr	r2, [pc, #456]	; b81c <nrf_tx_send_noack+0x2e8>
    b650:	e59f11c8 	ldr	r1, [pc, #456]	; b820 <nrf_tx_send_noack+0x2ec>
    b654:	e59f01c8 	ldr	r0, [pc, #456]	; b824 <nrf_tx_send_noack+0x2f0>
    b658:	eb00060d 	bl	ce94 <printk>
    b65c:	eb000663 	bl	cff0 <clean_reboot>
    b660:	e51b0008 	ldr	r0, [fp, #-8]
    b664:	ebfffd42 	bl	ab74 <nrf_tx_fifo_empty>
    b668:	e1a03000 	mov	r3, r0
    b66c:	e3530000 	cmp	r3, #0, 0
    b670:	1a00000a 	bne	b6a0 <nrf_tx_send_noack+0x16c>
    b674:	e51b1008 	ldr	r1, [fp, #-8]
    b678:	e59f0194 	ldr	r0, [pc, #404]	; b814 <nrf_tx_send_noack+0x2e0>
    b67c:	ebfff655 	bl	8fd8 <nrf_dump>
    b680:	e59f31ac 	ldr	r3, [pc, #428]	; b834 <nrf_tx_send_noack+0x300>
    b684:	e58d3000 	str	r3, [sp]
    b688:	e3a030a2 	mov	r3, #162, 0	; 0xa2
    b68c:	e59f2188 	ldr	r2, [pc, #392]	; b81c <nrf_tx_send_noack+0x2e8>
    b690:	e59f1188 	ldr	r1, [pc, #392]	; b820 <nrf_tx_send_noack+0x2ec>
    b694:	e59f0188 	ldr	r0, [pc, #392]	; b824 <nrf_tx_send_noack+0x2f0>
    b698:	eb0005fd 	bl	ce94 <printk>
    b69c:	eb000653 	bl	cff0 <clean_reboot>
    b6a0:	e320f000 	nop	{0}
    b6a4:	e51b0008 	ldr	r0, [fp, #-8]
    b6a8:	eb000063 	bl	b83c <nrf_get_pkts>
    b6ac:	e1a03000 	mov	r3, r0
    b6b0:	e3530000 	cmp	r3, #0, 0
    b6b4:	1afffffa 	bne	b6a4 <nrf_tx_send_noack+0x170>
    b6b8:	e51b3008 	ldr	r3, [fp, #-8]
    b6bc:	e5d33001 	ldrb	r3, [r3, #1]
    b6c0:	e1a00003 	mov	r0, r3
    b6c4:	eb000780 	bl	d4cc <gpio_set_off>
    b6c8:	e3a000c8 	mov	r0, #200, 0	; 0xc8
    b6cc:	eb0006eb 	bl	d280 <delay_us>
    b6d0:	e3a02000 	mov	r2, #0, 0
    b6d4:	e3a01000 	mov	r1, #0, 0
    b6d8:	e51b0008 	ldr	r0, [fp, #-8]
    b6dc:	ebfff4e8 	bl	8a84 <nrf_bit_clr>
    b6e0:	e3a03003 	mov	r3, #3, 0
    b6e4:	e51b200c 	ldr	r2, [fp, #-12]
    b6e8:	e3a01010 	mov	r1, #16, 0
    b6ec:	e51b0008 	ldr	r0, [fp, #-8]
    b6f0:	ebfff59f 	bl	8d74 <nrf_set_addr>
    b6f4:	e51b3014 	ldr	r3, [fp, #-20]	; 0xffffffec
    b6f8:	e51b2010 	ldr	r2, [fp, #-16]
    b6fc:	e3a010a0 	mov	r1, #160, 0	; 0xa0
    b700:	e51b0008 	ldr	r0, [fp, #-8]
    b704:	ebfff487 	bl	8928 <nrf_putn>
    b708:	e51b3008 	ldr	r3, [fp, #-8]
    b70c:	e5d33001 	ldrb	r3, [r3, #1]
    b710:	e1a00003 	mov	r0, r3
    b714:	eb000754 	bl	d46c <gpio_set_on>
    b718:	e3a00082 	mov	r0, #130, 0	; 0x82
    b71c:	eb0006d7 	bl	d280 <delay_us>
    b720:	e320f000 	nop	{0}
    b724:	e3a02004 	mov	r2, #4, 0
    b728:	e3a01017 	mov	r1, #23, 0
    b72c:	e51b0008 	ldr	r0, [fp, #-8]
    b730:	ebfff531 	bl	8bfc <nrf_bit_isset>
    b734:	e1a03000 	mov	r3, r0
    b738:	e3530000 	cmp	r3, #0, 0
    b73c:	0afffff8 	beq	b724 <nrf_tx_send_noack+0x1f0>
    b740:	e51b3008 	ldr	r3, [fp, #-8]
    b744:	e5d33001 	ldrb	r3, [r3, #1]
    b748:	e1a00003 	mov	r0, r3
    b74c:	eb00075e 	bl	d4cc <gpio_set_off>
    b750:	e51b0008 	ldr	r0, [fp, #-8]
    b754:	ebfffce4 	bl	aaec <nrf_tx_intr_clr>
    b758:	e51b3008 	ldr	r3, [fp, #-8]
    b75c:	e5d33001 	ldrb	r3, [r3, #1]
    b760:	e1a00003 	mov	r0, r3
    b764:	eb000740 	bl	d46c <gpio_set_on>
    b768:	e3a02000 	mov	r2, #0, 0
    b76c:	e3a01000 	mov	r1, #0, 0
    b770:	e51b0008 	ldr	r0, [fp, #-8]
    b774:	ebfff4f1 	bl	8b40 <nrf_bit_set>
    b778:	e3a000c8 	mov	r0, #200, 0	; 0xc8
    b77c:	eb0006bf 	bl	d280 <delay_us>
    b780:	e51b0008 	ldr	r0, [fp, #-8]
    b784:	ebfffccc 	bl	aabc <nrf_has_tx_intr>
    b788:	e1a03000 	mov	r3, r0
    b78c:	e3530000 	cmp	r3, #0, 0
    b790:	0a00000a 	beq	b7c0 <nrf_tx_send_noack+0x28c>
    b794:	e51b1008 	ldr	r1, [fp, #-8]
    b798:	e59f0074 	ldr	r0, [pc, #116]	; b814 <nrf_tx_send_noack+0x2e0>
    b79c:	ebfff60d 	bl	8fd8 <nrf_dump>
    b7a0:	e59f3090 	ldr	r3, [pc, #144]	; b838 <nrf_tx_send_noack+0x304>
    b7a4:	e58d3000 	str	r3, [sp]
    b7a8:	e3a030c6 	mov	r3, #198, 0	; 0xc6
    b7ac:	e59f2068 	ldr	r2, [pc, #104]	; b81c <nrf_tx_send_noack+0x2e8>
    b7b0:	e59f1068 	ldr	r1, [pc, #104]	; b820 <nrf_tx_send_noack+0x2ec>
    b7b4:	e59f0068 	ldr	r0, [pc, #104]	; b824 <nrf_tx_send_noack+0x2f0>
    b7b8:	eb0005b5 	bl	ce94 <printk>
    b7bc:	eb00060b 	bl	cff0 <clean_reboot>
    b7c0:	e3a01000 	mov	r1, #0, 0
    b7c4:	e51b0008 	ldr	r0, [fp, #-8]
    b7c8:	ebfff3ae 	bl	8688 <nrf_get8>
    b7cc:	e1a03000 	mov	r3, r0
    b7d0:	e353007f 	cmp	r3, #127, 0	; 0x7f
    b7d4:	0a00000a 	beq	b804 <nrf_tx_send_noack+0x2d0>
    b7d8:	e51b1008 	ldr	r1, [fp, #-8]
    b7dc:	e59f0030 	ldr	r0, [pc, #48]	; b814 <nrf_tx_send_noack+0x2e0>
    b7e0:	ebfff5fc 	bl	8fd8 <nrf_dump>
    b7e4:	e59f302c 	ldr	r3, [pc, #44]	; b818 <nrf_tx_send_noack+0x2e4>
    b7e8:	e58d3000 	str	r3, [sp]
    b7ec:	e3a030c8 	mov	r3, #200, 0	; 0xc8
    b7f0:	e59f2024 	ldr	r2, [pc, #36]	; b81c <nrf_tx_send_noack+0x2e8>
    b7f4:	e59f1024 	ldr	r1, [pc, #36]	; b820 <nrf_tx_send_noack+0x2ec>
    b7f8:	e59f0024 	ldr	r0, [pc, #36]	; b824 <nrf_tx_send_noack+0x2f0>
    b7fc:	eb0005a4 	bl	ce94 <printk>
    b800:	eb0005fa 	bl	cff0 <clean_reboot>
    b804:	e51b3014 	ldr	r3, [fp, #-20]	; 0xffffffec
    b808:	e1a00003 	mov	r0, r3
    b80c:	e24bd004 	sub	sp, fp, #4, 0
    b810:	e8bd8800 	pop	{fp, pc}
    b814:	0000eb58 	.word	0x0000eb58
    b818:	0000eb90 	.word	0x0000eb90
    b81c:	0000ed14 	.word	0x0000ed14
    b820:	0000eb6c 	.word	0x0000eb6c
    b824:	0000eb7c 	.word	0x0000eb7c
    b828:	0000ec38 	.word	0x0000ec38
    b82c:	0000ebd4 	.word	0x0000ebd4
    b830:	0000ec54 	.word	0x0000ec54
    b834:	0000ec20 	.word	0x0000ec20
    b838:	0000ec98 	.word	0x0000ec98

0000b83c <nrf_get_pkts>:
    b83c:	e92d4800 	push	{fp, lr}
    b840:	e28db004 	add	fp, sp, #4, 0
    b844:	e24dd098 	sub	sp, sp, #152, 0	; 0x98
    b848:	e50b0090 	str	r0, [fp, #-144]	; 0xffffff70
    b84c:	e3a01000 	mov	r1, #0, 0
    b850:	e51b0090 	ldr	r0, [fp, #-144]	; 0xffffff70
    b854:	ebfff38b 	bl	8688 <nrf_get8>
    b858:	e1a03000 	mov	r3, r0
    b85c:	e353007f 	cmp	r3, #127, 0	; 0x7f
    b860:	0a00000a 	beq	b890 <nrf_get_pkts+0x54>
    b864:	e51b1090 	ldr	r1, [fp, #-144]	; 0xffffff70
    b868:	e59f0114 	ldr	r0, [pc, #276]	; b984 <nrf_get_pkts+0x148>
    b86c:	ebfff5d9 	bl	8fd8 <nrf_dump>
    b870:	e59f3110 	ldr	r3, [pc, #272]	; b988 <nrf_get_pkts+0x14c>
    b874:	e58d3000 	str	r3, [sp]
    b878:	e3a030cd 	mov	r3, #205, 0	; 0xcd
    b87c:	e59f2108 	ldr	r2, [pc, #264]	; b98c <nrf_get_pkts+0x150>
    b880:	e59f1108 	ldr	r1, [pc, #264]	; b990 <nrf_get_pkts+0x154>
    b884:	e59f0108 	ldr	r0, [pc, #264]	; b994 <nrf_get_pkts+0x158>
    b888:	eb000581 	bl	ce94 <printk>
    b88c:	eb0005d7 	bl	cff0 <clean_reboot>
    b890:	e3a03000 	mov	r3, #0, 0
    b894:	e50b3008 	str	r3, [fp, #-8]
    b898:	ea00001f 	b	b91c <nrf_get_pkts+0xe0>
    b89c:	e51b0090 	ldr	r0, [fp, #-144]	; 0xffffff70
    b8a0:	ebfffc60 	bl	aa28 <nrf_rx_get_pipeid>
    b8a4:	e1a03000 	mov	r3, r0
    b8a8:	e3530001 	cmp	r3, #1, 0
    b8ac:	0a000007 	beq	b8d0 <nrf_get_pkts+0x94>
    b8b0:	e59f30e0 	ldr	r3, [pc, #224]	; b998 <nrf_get_pkts+0x15c>
    b8b4:	e58d3000 	str	r3, [sp]
    b8b8:	e3a030df 	mov	r3, #223, 0	; 0xdf
    b8bc:	e59f20c8 	ldr	r2, [pc, #200]	; b98c <nrf_get_pkts+0x150>
    b8c0:	e59f10c8 	ldr	r1, [pc, #200]	; b990 <nrf_get_pkts+0x154>
    b8c4:	e59f00d0 	ldr	r0, [pc, #208]	; b99c <nrf_get_pkts+0x160>
    b8c8:	eb000571 	bl	ce94 <printk>
    b8cc:	eb0005c7 	bl	cff0 <clean_reboot>
    b8d0:	e51b3090 	ldr	r3, [fp, #-144]	; 0xffffff70
    b8d4:	e5d33003 	ldrb	r3, [r3, #3]
    b8d8:	e24b2088 	sub	r2, fp, #136, 0	; 0x88
    b8dc:	e3a01061 	mov	r1, #97, 0	; 0x61
    b8e0:	e51b0090 	ldr	r0, [fp, #-144]	; 0xffffff70
    b8e4:	ebfff3cb 	bl	8818 <nrf_getn>
    b8e8:	e51b3090 	ldr	r3, [fp, #-144]	; 0xffffff70
    b8ec:	e2830024 	add	r0, r3, #36, 0	; 0x24
    b8f0:	e51b3090 	ldr	r3, [fp, #-144]	; 0xffffff70
    b8f4:	e5d33003 	ldrb	r3, [r3, #3]
    b8f8:	e1a02003 	mov	r2, r3
    b8fc:	e24b3088 	sub	r3, fp, #136, 0	; 0x88
    b900:	e1a01003 	mov	r1, r3
    b904:	ebfffaf8 	bl	a4ec <cq_push_n>
    b908:	e51b0090 	ldr	r0, [fp, #-144]	; 0xffffff70
    b90c:	ebfffc81 	bl	ab18 <nrf_rx_intr_clr>
    b910:	e51b3008 	ldr	r3, [fp, #-8]
    b914:	e2833001 	add	r3, r3, #1, 0
    b918:	e50b3008 	str	r3, [fp, #-8]
    b91c:	e51b0090 	ldr	r0, [fp, #-144]	; 0xffffff70
    b920:	ebfffc87 	bl	ab44 <nrf_rx_fifo_empty>
    b924:	e1a03000 	mov	r3, r0
    b928:	e3530000 	cmp	r3, #0, 0
    b92c:	0affffda 	beq	b89c <nrf_get_pkts+0x60>
    b930:	e3a01000 	mov	r1, #0, 0
    b934:	e51b0090 	ldr	r0, [fp, #-144]	; 0xffffff70
    b938:	ebfff352 	bl	8688 <nrf_get8>
    b93c:	e1a03000 	mov	r3, r0
    b940:	e353007f 	cmp	r3, #127, 0	; 0x7f
    b944:	0a00000a 	beq	b974 <nrf_get_pkts+0x138>
    b948:	e51b1090 	ldr	r1, [fp, #-144]	; 0xffffff70
    b94c:	e59f0030 	ldr	r0, [pc, #48]	; b984 <nrf_get_pkts+0x148>
    b950:	ebfff5a0 	bl	8fd8 <nrf_dump>
    b954:	e59f302c 	ldr	r3, [pc, #44]	; b988 <nrf_get_pkts+0x14c>
    b958:	e58d3000 	str	r3, [sp]
    b95c:	e3a030ec 	mov	r3, #236, 0	; 0xec
    b960:	e59f2024 	ldr	r2, [pc, #36]	; b98c <nrf_get_pkts+0x150>
    b964:	e59f1024 	ldr	r1, [pc, #36]	; b990 <nrf_get_pkts+0x154>
    b968:	e59f0024 	ldr	r0, [pc, #36]	; b994 <nrf_get_pkts+0x158>
    b96c:	eb000548 	bl	ce94 <printk>
    b970:	eb00059e 	bl	cff0 <clean_reboot>
    b974:	e51b3008 	ldr	r3, [fp, #-8]
    b978:	e1a00003 	mov	r0, r3
    b97c:	e24bd004 	sub	sp, fp, #4, 0
    b980:	e8bd8800 	pop	{fp, pc}
    b984:	0000eb58 	.word	0x0000eb58
    b988:	0000eb90 	.word	0x0000eb90
    b98c:	0000ed28 	.word	0x0000ed28
    b990:	0000eb6c 	.word	0x0000eb6c
    b994:	0000eb7c 	.word	0x0000eb7c
    b998:	0000ecac 	.word	0x0000ecac
    b99c:	0000ea10 	.word	0x0000ea10

0000b9a0 <compose_tlv>:
    b9a0:	e92d4800 	push	{fp, lr}
    b9a4:	e28db004 	add	fp, sp, #4, 0
    b9a8:	e24dd018 	sub	sp, sp, #24, 0
    b9ac:	e50b0010 	str	r0, [fp, #-16]
    b9b0:	e50b1014 	str	r1, [fp, #-20]	; 0xffffffec
    b9b4:	e1a03002 	mov	r3, r2
    b9b8:	e14b31b6 	strh	r3, [fp, #-22]	; 0xffffffea
    b9bc:	e59f315c 	ldr	r3, [pc, #348]	; bb20 <compose_tlv+0x180>
    b9c0:	e50b3008 	str	r3, [fp, #-8]
    b9c4:	e51b0008 	ldr	r0, [fp, #-8]
    b9c8:	eb000573 	bl	cf9c <strlen>
    b9cc:	e1a03000 	mov	r3, r0
    b9d0:	e14b30ba 	strh	r3, [fp, #-10]
    b9d4:	e3a03000 	mov	r3, #0, 0
    b9d8:	e14b30bc 	strh	r3, [fp, #-12]
    b9dc:	e15b30bc 	ldrh	r3, [fp, #-12]
    b9e0:	e51b2010 	ldr	r2, [fp, #-16]
    b9e4:	e0823003 	add	r3, r2, r3
    b9e8:	e3a02001 	mov	r2, #1, 0
    b9ec:	e5c32000 	strb	r2, [r3]
    b9f0:	e15b30bc 	ldrh	r3, [fp, #-12]
    b9f4:	e2833001 	add	r3, r3, #1, 0
    b9f8:	e14b30bc 	strh	r3, [fp, #-12]
    b9fc:	e15b30bc 	ldrh	r3, [fp, #-12]
    ba00:	e51b2010 	ldr	r2, [fp, #-16]
    ba04:	e0823003 	add	r3, r2, r3
    ba08:	e15b20ba 	ldrh	r2, [fp, #-10]
    ba0c:	e6ef2072 	uxtb	r2, r2
    ba10:	e5c32000 	strb	r2, [r3]
    ba14:	e15b30bc 	ldrh	r3, [fp, #-12]
    ba18:	e2833001 	add	r3, r3, #1, 0
    ba1c:	e14b30bc 	strh	r3, [fp, #-12]
    ba20:	e15b30ba 	ldrh	r3, [fp, #-10]
    ba24:	e1a03423 	lsr	r3, r3, #8
    ba28:	e6ff1073 	uxth	r1, r3
    ba2c:	e15b30bc 	ldrh	r3, [fp, #-12]
    ba30:	e51b2010 	ldr	r2, [fp, #-16]
    ba34:	e0823003 	add	r3, r2, r3
    ba38:	e6ef2071 	uxtb	r2, r1
    ba3c:	e5c32000 	strb	r2, [r3]
    ba40:	e15b30bc 	ldrh	r3, [fp, #-12]
    ba44:	e2833001 	add	r3, r3, #1, 0
    ba48:	e14b30bc 	strh	r3, [fp, #-12]
    ba4c:	e15b30bc 	ldrh	r3, [fp, #-12]
    ba50:	e51b2010 	ldr	r2, [fp, #-16]
    ba54:	e0823003 	add	r3, r2, r3
    ba58:	e51b1008 	ldr	r1, [fp, #-8]
    ba5c:	e1a00003 	mov	r0, r3
    ba60:	eb000537 	bl	cf44 <strcpy>
    ba64:	e15b20bc 	ldrh	r2, [fp, #-12]
    ba68:	e15b30ba 	ldrh	r3, [fp, #-10]
    ba6c:	e0823003 	add	r3, r2, r3
    ba70:	e14b30bc 	strh	r3, [fp, #-12]
    ba74:	e15b30bc 	ldrh	r3, [fp, #-12]
    ba78:	e51b2010 	ldr	r2, [fp, #-16]
    ba7c:	e0823003 	add	r3, r2, r3
    ba80:	e3a02002 	mov	r2, #2, 0
    ba84:	e5c32000 	strb	r2, [r3]
    ba88:	e15b30bc 	ldrh	r3, [fp, #-12]
    ba8c:	e2833001 	add	r3, r3, #1, 0
    ba90:	e14b30bc 	strh	r3, [fp, #-12]
    ba94:	e15b30bc 	ldrh	r3, [fp, #-12]
    ba98:	e51b2010 	ldr	r2, [fp, #-16]
    ba9c:	e0823003 	add	r3, r2, r3
    baa0:	e15b21b6 	ldrh	r2, [fp, #-22]	; 0xffffffea
    baa4:	e6ef2072 	uxtb	r2, r2
    baa8:	e5c32000 	strb	r2, [r3]
    baac:	e15b30bc 	ldrh	r3, [fp, #-12]
    bab0:	e2833001 	add	r3, r3, #1, 0
    bab4:	e14b30bc 	strh	r3, [fp, #-12]
    bab8:	e15b31b6 	ldrh	r3, [fp, #-22]	; 0xffffffea
    babc:	e1a03423 	lsr	r3, r3, #8
    bac0:	e6ff1073 	uxth	r1, r3
    bac4:	e15b30bc 	ldrh	r3, [fp, #-12]
    bac8:	e51b2010 	ldr	r2, [fp, #-16]
    bacc:	e0823003 	add	r3, r2, r3
    bad0:	e6ef2071 	uxtb	r2, r1
    bad4:	e5c32000 	strb	r2, [r3]
    bad8:	e15b30bc 	ldrh	r3, [fp, #-12]
    badc:	e2833001 	add	r3, r3, #1, 0
    bae0:	e14b30bc 	strh	r3, [fp, #-12]
    bae4:	e15b30bc 	ldrh	r3, [fp, #-12]
    bae8:	e51b2010 	ldr	r2, [fp, #-16]
    baec:	e0823003 	add	r3, r2, r3
    baf0:	e15b21b6 	ldrh	r2, [fp, #-22]	; 0xffffffea
    baf4:	e51b1014 	ldr	r1, [fp, #-20]	; 0xffffffec
    baf8:	e1a00003 	mov	r0, r3
    bafc:	eb000310 	bl	c744 <memcpy>
    bb00:	e15b20bc 	ldrh	r2, [fp, #-12]
    bb04:	e15b31b6 	ldrh	r3, [fp, #-22]	; 0xffffffea
    bb08:	e0823003 	add	r3, r2, r3
    bb0c:	e14b30bc 	strh	r3, [fp, #-12]
    bb10:	e15b30bc 	ldrh	r3, [fp, #-12]
    bb14:	e1a00003 	mov	r0, r3
    bb18:	e24bd004 	sub	sp, fp, #4, 0
    bb1c:	e8bd8800 	pop	{fp, pc}
    bb20:	0000ed64 	.word	0x0000ed64

0000bb24 <new_cs>:
    bb24:	e3a00000 	mov	r0, #0, 0
    bb28:	e12fff1e 	bx	lr

0000bb2c <read_cs>:
    bb2c:	e92d4010 	push	{r4, lr}
    bb30:	ebfff13d 	bl	802c <GET32>
    bb34:	e8bd8010 	pop	{r4, pc}

0000bb38 <start_transfer>:
    bb38:	e24dd010 	sub	sp, sp, #16, 0
    bb3c:	e92d4010 	push	{r4, lr}
    bb40:	e24dd008 	sub	sp, sp, #8, 0
    bb44:	e28dc00c 	add	ip, sp, #12, 0
    bb48:	e98c000f 	stmib	ip, {r0, r1, r2, r3}
    bb4c:	eb000561 	bl	d0d8 <dev_barrier>
    bb50:	e59f306c 	ldr	r3, [pc, #108]	; bbc4 <start_transfer+0x8c>
    bb54:	e5933000 	ldr	r3, [r3]
    bb58:	e3530000 	cmp	r3, #0, 0
    bb5c:	1a000010 	bne	bba4 <start_transfer+0x6c>
    bb60:	e59f4060 	ldr	r4, [pc, #96]	; bbc8 <start_transfer+0x90>
    bb64:	e1a00004 	mov	r0, r4
    bb68:	ebffffef 	bl	bb2c <read_cs>
    bb6c:	e38000b0 	orr	r0, r0, #176, 0	; 0xb0
    bb70:	e59d1010 	ldr	r1, [sp, #16]
    bb74:	e2011003 	and	r1, r1, #3, 0
    bb78:	e3c00003 	bic	r0, r0, #3, 0
    bb7c:	e1811000 	orr	r1, r1, r0
    bb80:	e1a00004 	mov	r0, r4
    bb84:	ebfff126 	bl	8024 <PUT32>
    bb88:	eb000552 	bl	d0d8 <dev_barrier>
    bb8c:	e3a00003 	mov	r0, #3, 0
    bb90:	eb000540 	bl	d098 <delay_cycles>
    bb94:	e28dd008 	add	sp, sp, #8, 0
    bb98:	e8bd4010 	pop	{r4, lr}
    bb9c:	e28dd010 	add	sp, sp, #16, 0
    bba0:	e12fff1e 	bx	lr
    bba4:	e59d3010 	ldr	r3, [sp, #16]
    bba8:	e58d3000 	str	r3, [sp]
    bbac:	e3a030f5 	mov	r3, #245, 0	; 0xf5
    bbb0:	e59f2014 	ldr	r2, [pc, #20]	; bbcc <start_transfer+0x94>
    bbb4:	e59f1014 	ldr	r1, [pc, #20]	; bbd0 <start_transfer+0x98>
    bbb8:	e59f0014 	ldr	r0, [pc, #20]	; bbd4 <start_transfer+0x9c>
    bbbc:	eb0004b4 	bl	ce94 <printk>
    bbc0:	eaffffe6 	b	bb60 <start_transfer+0x28>
    bbc4:	0000f360 	.word	0x0000f360
    bbc8:	20204000 	.word	0x20204000
    bbcc:	0000ef64 	.word	0x0000ef64
    bbd0:	0000ed70 	.word	0x0000ed70
    bbd4:	0000ed7c 	.word	0x0000ed7c

0000bbd8 <end_transfer>:
    bbd8:	e24dd010 	sub	sp, sp, #16, 0
    bbdc:	e52de004 	push	{lr}		; (str lr, [sp, #-4]!)
    bbe0:	e24dd00c 	sub	sp, sp, #12, 0
    bbe4:	e28dc00c 	add	ip, sp, #12, 0
    bbe8:	e98c000f 	stmib	ip, {r0, r1, r2, r3}
    bbec:	e59f30c4 	ldr	r3, [pc, #196]	; bcb8 <end_transfer+0xe0>
    bbf0:	e5933000 	ldr	r3, [r3]
    bbf4:	e3530000 	cmp	r3, #0, 0
    bbf8:	1a000017 	bne	bc5c <end_transfer+0x84>
    bbfc:	e59f30b8 	ldr	r3, [pc, #184]	; bcbc <end_transfer+0xe4>
    bc00:	e5933000 	ldr	r3, [r3]
    bc04:	e3130801 	tst	r3, #65536	; 0x10000
    bc08:	0afffffb 	beq	bbfc <end_transfer+0x24>
    bc0c:	e59f30a4 	ldr	r3, [pc, #164]	; bcb8 <end_transfer+0xe0>
    bc10:	e5933000 	ldr	r3, [r3]
    bc14:	e3530000 	cmp	r3, #0, 0
    bc18:	1a000016 	bne	bc78 <end_transfer+0xa0>
    bc1c:	e59f0098 	ldr	r0, [pc, #152]	; bcbc <end_transfer+0xe4>
    bc20:	ebffffc1 	bl	bb2c <read_cs>
    bc24:	e3c01080 	bic	r1, r0, #128, 0	; 0x80
    bc28:	e2000003 	and	r0, r0, #3, 0
    bc2c:	e59d3010 	ldr	r3, [sp, #16]
    bc30:	e1500003 	cmp	r0, r3
    bc34:	1a000017 	bne	bc98 <end_transfer+0xc0>
    bc38:	e59f007c 	ldr	r0, [pc, #124]	; bcbc <end_transfer+0xe4>
    bc3c:	ebfff0f8 	bl	8024 <PUT32>
    bc40:	eb000524 	bl	d0d8 <dev_barrier>
    bc44:	e3a00003 	mov	r0, #3, 0
    bc48:	eb000512 	bl	d098 <delay_cycles>
    bc4c:	e28dd00c 	add	sp, sp, #12, 0
    bc50:	e49de004 	pop	{lr}		; (ldr lr, [sp], #4)
    bc54:	e28dd010 	add	sp, sp, #16, 0
    bc58:	e12fff1e 	bx	lr
    bc5c:	e58d0000 	str	r0, [sp]
    bc60:	e59f3058 	ldr	r3, [pc, #88]	; bcc0 <end_transfer+0xe8>
    bc64:	e59f2058 	ldr	r2, [pc, #88]	; bcc4 <end_transfer+0xec>
    bc68:	e59f1058 	ldr	r1, [pc, #88]	; bcc8 <end_transfer+0xf0>
    bc6c:	e59f0058 	ldr	r0, [pc, #88]	; bccc <end_transfer+0xf4>
    bc70:	eb000487 	bl	ce94 <printk>
    bc74:	eaffffe0 	b	bbfc <end_transfer+0x24>
    bc78:	e59d3010 	ldr	r3, [sp, #16]
    bc7c:	e58d3000 	str	r3, [sp]
    bc80:	e3a03f47 	mov	r3, #284	; 0x11c
    bc84:	e59f2038 	ldr	r2, [pc, #56]	; bcc4 <end_transfer+0xec>
    bc88:	e59f1038 	ldr	r1, [pc, #56]	; bcc8 <end_transfer+0xf0>
    bc8c:	e59f003c 	ldr	r0, [pc, #60]	; bcd0 <end_transfer+0xf8>
    bc90:	eb00047f 	bl	ce94 <printk>
    bc94:	eaffffe0 	b	bc1c <end_transfer+0x44>
    bc98:	e58d3004 	str	r3, [sp, #4]
    bc9c:	e58d0000 	str	r0, [sp]
    bca0:	e59f302c 	ldr	r3, [pc, #44]	; bcd4 <end_transfer+0xfc>
    bca4:	e59f2018 	ldr	r2, [pc, #24]	; bcc4 <end_transfer+0xec>
    bca8:	e59f1018 	ldr	r1, [pc, #24]	; bcc8 <end_transfer+0xf0>
    bcac:	e59f0024 	ldr	r0, [pc, #36]	; bcd8 <end_transfer+0x100>
    bcb0:	eb000477 	bl	ce94 <printk>
    bcb4:	eb0004cd 	bl	cff0 <clean_reboot>
    bcb8:	0000f360 	.word	0x0000f360
    bcbc:	20204000 	.word	0x20204000
    bcc0:	00000119 	.word	0x00000119
    bcc4:	0000ef74 	.word	0x0000ef74
    bcc8:	0000ed70 	.word	0x0000ed70
    bccc:	0000eda0 	.word	0x0000eda0
    bcd0:	0000edd0 	.word	0x0000edd0
    bcd4:	00000122 	.word	0x00000122
    bcd8:	0000edf0 	.word	0x0000edf0

0000bcdc <move_data>:
    bcdc:	e92d41f0 	push	{r4, r5, r6, r7, r8, lr}
    bce0:	e24dd010 	sub	sp, sp, #16, 0
    bce4:	e1a08000 	mov	r8, r0
    bce8:	e1a06001 	mov	r6, r1
    bcec:	e1a05002 	mov	r5, r2
    bcf0:	e3520010 	cmp	r2, #16, 0
    bcf4:	31a07002 	movcc	r7, r2
    bcf8:	23a07010 	movcs	r7, #16, 0
    bcfc:	e3a04000 	mov	r4, #0, 0
    bd00:	ea000003 	b	bd14 <move_data+0x38>
    bd04:	e7d61004 	ldrb	r1, [r6, r4]
    bd08:	e59f00c4 	ldr	r0, [pc, #196]	; bdd4 <move_data+0xf8>
    bd0c:	ebfff0c4 	bl	8024 <PUT32>
    bd10:	e2844001 	add	r4, r4, #1, 0
    bd14:	e1540007 	cmp	r4, r7
    bd18:	3afffff9 	bcc	bd04 <move_data+0x28>
    bd1c:	e3a07000 	mov	r7, #0, 0
    bd20:	ea00000d 	b	bd5c <move_data+0x80>
    bd24:	e7d61004 	ldrb	r1, [r6, r4]
    bd28:	e59f00a4 	ldr	r0, [pc, #164]	; bdd4 <move_data+0xf8>
    bd2c:	ebfff0bc 	bl	8024 <PUT32>
    bd30:	e2844001 	add	r4, r4, #1, 0
    bd34:	e1540005 	cmp	r4, r5
    bd38:	2a000003 	bcs	bd4c <move_data+0x70>
    bd3c:	e59f3094 	ldr	r3, [pc, #148]	; bdd8 <move_data+0xfc>
    bd40:	e5933000 	ldr	r3, [r3]
    bd44:	e3130701 	tst	r3, #262144	; 0x40000
    bd48:	1afffff5 	bne	bd24 <move_data+0x48>
    bd4c:	e59f3084 	ldr	r3, [pc, #132]	; bdd8 <move_data+0xfc>
    bd50:	e5933000 	ldr	r3, [r3]
    bd54:	e3130802 	tst	r3, #131072	; 0x20000
    bd58:	1a000007 	bne	bd7c <move_data+0xa0>
    bd5c:	e1570005 	cmp	r7, r5
    bd60:	3afffff3 	bcc	bd34 <move_data+0x58>
    bd64:	e1540005 	cmp	r4, r5
    bd68:	1a000008 	bne	bd90 <move_data+0xb4>
    bd6c:	e1570005 	cmp	r7, r5
    bd70:	1a00000f 	bne	bdb4 <move_data+0xd8>
    bd74:	e28dd010 	add	sp, sp, #16, 0
    bd78:	e8bd81f0 	pop	{r4, r5, r6, r7, r8, pc}
    bd7c:	e59f0050 	ldr	r0, [pc, #80]	; bdd4 <move_data+0xf8>
    bd80:	ebfff0a9 	bl	802c <GET32>
    bd84:	e7c80007 	strb	r0, [r8, r7]
    bd88:	e2877001 	add	r7, r7, #1, 0
    bd8c:	eafffff2 	b	bd5c <move_data+0x80>
    bd90:	e58d5008 	str	r5, [sp, #8]
    bd94:	e58d7004 	str	r7, [sp, #4]
    bd98:	e58d4000 	str	r4, [sp]
    bd9c:	e59f3038 	ldr	r3, [pc, #56]	; bddc <move_data+0x100>
    bda0:	e59f2038 	ldr	r2, [pc, #56]	; bde0 <move_data+0x104>
    bda4:	e59f1038 	ldr	r1, [pc, #56]	; bde4 <move_data+0x108>
    bda8:	e59f0038 	ldr	r0, [pc, #56]	; bde8 <move_data+0x10c>
    bdac:	eb000438 	bl	ce94 <printk>
    bdb0:	eb00048e 	bl	cff0 <clean_reboot>
    bdb4:	e59f3030 	ldr	r3, [pc, #48]	; bdec <move_data+0x110>
    bdb8:	e58d3000 	str	r3, [sp]
    bdbc:	e3a03e1a 	mov	r3, #416	; 0x1a0
    bdc0:	e59f2018 	ldr	r2, [pc, #24]	; bde0 <move_data+0x104>
    bdc4:	e59f1018 	ldr	r1, [pc, #24]	; bde4 <move_data+0x108>
    bdc8:	e59f0020 	ldr	r0, [pc, #32]	; bdf0 <move_data+0x114>
    bdcc:	eb000430 	bl	ce94 <printk>
    bdd0:	eb000486 	bl	cff0 <clean_reboot>
    bdd4:	20204004 	.word	0x20204004
    bdd8:	20204000 	.word	0x20204000
    bddc:	0000019e 	.word	0x0000019e
    bde0:	0000ef84 	.word	0x0000ef84
    bde4:	0000ed70 	.word	0x0000ed70
    bde8:	0000ee28 	.word	0x0000ee28
    bdec:	0000ee88 	.word	0x0000ee88
    bdf0:	0000ee58 	.word	0x0000ee58

0000bdf4 <spi_set_verbose>:
    bdf4:	e59f3004 	ldr	r3, [pc, #4]	; be00 <spi_set_verbose+0xc>
    bdf8:	e5830000 	str	r0, [r3]
    bdfc:	e12fff1e 	bx	lr
    be00:	0000f360 	.word	0x0000f360

0000be04 <spi_n_transfer>:
    be04:	e24dd010 	sub	sp, sp, #16, 0
    be08:	e92d4070 	push	{r4, r5, r6, lr}
    be0c:	e24dd010 	sub	sp, sp, #16, 0
    be10:	e28dc01c 	add	ip, sp, #28, 0
    be14:	e98c000f 	stmib	ip, {r0, r1, r2, r3}
    be18:	e59d6040 	ldr	r6, [sp, #64]	; 0x40
    be1c:	e3560000 	cmp	r6, #0, 0
    be20:	0a000013 	beq	be74 <spi_n_transfer+0x70>
    be24:	e58d6008 	str	r6, [sp, #8]
    be28:	e28d5030 	add	r5, sp, #48, 0	; 0x30
    be2c:	e8950003 	ldm	r5, {r0, r1}
    be30:	e88d0003 	stm	sp, {r0, r1}
    be34:	e28d4020 	add	r4, sp, #32, 0
    be38:	e894000f 	ldm	r4, {r0, r1, r2, r3}
    be3c:	ebffff3d 	bl	bb38 <start_transfer>
    be40:	e1a02006 	mov	r2, r6
    be44:	e59d103c 	ldr	r1, [sp, #60]	; 0x3c
    be48:	e59d0038 	ldr	r0, [sp, #56]	; 0x38
    be4c:	ebffffa2 	bl	bcdc <move_data>
    be50:	e8950003 	ldm	r5, {r0, r1}
    be54:	e88d0003 	stm	sp, {r0, r1}
    be58:	e894000f 	ldm	r4, {r0, r1, r2, r3}
    be5c:	ebffff5d 	bl	bbd8 <end_transfer>
    be60:	e3a00001 	mov	r0, #1, 0
    be64:	e28dd010 	add	sp, sp, #16, 0
    be68:	e8bd4070 	pop	{r4, r5, r6, lr}
    be6c:	e28dd010 	add	sp, sp, #16, 0
    be70:	e12fff1e 	bx	lr
    be74:	e59f3018 	ldr	r3, [pc, #24]	; be94 <spi_n_transfer+0x90>
    be78:	e58d3000 	str	r3, [sp]
    be7c:	e59f3014 	ldr	r3, [pc, #20]	; be98 <spi_n_transfer+0x94>
    be80:	e59f2014 	ldr	r2, [pc, #20]	; be9c <spi_n_transfer+0x98>
    be84:	e59f1014 	ldr	r1, [pc, #20]	; bea0 <spi_n_transfer+0x9c>
    be88:	e59f0014 	ldr	r0, [pc, #20]	; bea4 <spi_n_transfer+0xa0>
    be8c:	eb000400 	bl	ce94 <printk>
    be90:	eb000456 	bl	cff0 <clean_reboot>
    be94:	0000ee90 	.word	0x0000ee90
    be98:	000001c3 	.word	0x000001c3
    be9c:	0000ef90 	.word	0x0000ef90
    bea0:	0000ed70 	.word	0x0000ed70
    bea4:	0000ee58 	.word	0x0000ee58

0000bea8 <spi_n_init>:
    bea8:	e92d40f0 	push	{r4, r5, r6, r7, lr}
    beac:	e24dd014 	sub	sp, sp, #20, 0
    beb0:	e1a04000 	mov	r4, r0
    beb4:	e1a05001 	mov	r5, r1
    beb8:	e1a06002 	mov	r6, r2
    bebc:	e59f3170 	ldr	r3, [pc, #368]	; c034 <spi_n_init+0x18c>
    bec0:	e5933004 	ldr	r3, [r3, #4]
    bec4:	e3530000 	cmp	r3, #0, 0
    bec8:	1a00002b 	bne	bf7c <spi_n_init+0xd4>
    becc:	e59f3160 	ldr	r3, [pc, #352]	; c034 <spi_n_init+0x18c>
    bed0:	e5832004 	str	r2, [r3, #4]
    bed4:	eb00047f 	bl	d0d8 <dev_barrier>
    bed8:	e3550000 	cmp	r5, #0, 0
    bedc:	0a000030 	beq	bfa4 <spi_n_init+0xfc>
    bee0:	e3550001 	cmp	r5, #1, 0
    bee4:	1a000032 	bne	bfb4 <spi_n_init+0x10c>
    bee8:	e3a01004 	mov	r1, #4, 0
    beec:	e3a00007 	mov	r0, #7, 0
    bef0:	eb00064b 	bl	d824 <gpio_set_function>
    bef4:	e59f3138 	ldr	r3, [pc, #312]	; c034 <spi_n_init+0x18c>
    bef8:	e5933008 	ldr	r3, [r3, #8]
    befc:	e3530000 	cmp	r3, #0, 0
    bf00:	0a000032 	beq	bfd0 <spi_n_init+0x128>
    bf04:	eb000473 	bl	d0d8 <dev_barrier>
    bf08:	ebffff05 	bl	bb24 <new_cs>
    bf0c:	e2051003 	and	r1, r5, #3, 0
    bf10:	e3c00003 	bic	r0, r0, #3, 0
    bf14:	e1811000 	orr	r1, r1, r0
    bf18:	e59f7118 	ldr	r7, [pc, #280]	; c038 <spi_n_init+0x190>
    bf1c:	e3811030 	orr	r1, r1, #48, 0	; 0x30
    bf20:	e1a00007 	mov	r0, r7
    bf24:	ebfff03e 	bl	8024 <PUT32>
    bf28:	eb00046a 	bl	d0d8 <dev_barrier>
    bf2c:	e1a00007 	mov	r0, r7
    bf30:	ebfffefd 	bl	bb2c <read_cs>
    bf34:	e2000003 	and	r0, r0, #3, 0
    bf38:	e1500005 	cmp	r0, r5
    bf3c:	1a000030 	bne	c004 <spi_n_init+0x15c>
    bf40:	e1a01006 	mov	r1, r6
    bf44:	e59f00f0 	ldr	r0, [pc, #240]	; c03c <spi_n_init+0x194>
    bf48:	ebfff035 	bl	8024 <PUT32>
    bf4c:	eb000461 	bl	d0d8 <dev_barrier>
    bf50:	e3a03000 	mov	r3, #0, 0
    bf54:	e5843000 	str	r3, [r4]
    bf58:	e5843004 	str	r3, [r4, #4]
    bf5c:	e5843008 	str	r3, [r4, #8]
    bf60:	e584300c 	str	r3, [r4, #12]
    bf64:	e5843010 	str	r3, [r4, #16]
    bf68:	e5843014 	str	r3, [r4, #20]
    bf6c:	e5845000 	str	r5, [r4]
    bf70:	e1a00004 	mov	r0, r4
    bf74:	e28dd014 	add	sp, sp, #20, 0
    bf78:	e8bd80f0 	pop	{r4, r5, r6, r7, pc}
    bf7c:	e1530002 	cmp	r3, r2
    bf80:	0affffd3 	beq	bed4 <spi_n_init+0x2c>
    bf84:	e58d2004 	str	r2, [sp, #4]
    bf88:	e58d3000 	str	r3, [sp]
    bf8c:	e59f30ac 	ldr	r3, [pc, #172]	; c040 <spi_n_init+0x198>
    bf90:	e59f20ac 	ldr	r2, [pc, #172]	; c044 <spi_n_init+0x19c>
    bf94:	e59f10ac 	ldr	r1, [pc, #172]	; c048 <spi_n_init+0x1a0>
    bf98:	e59f00ac 	ldr	r0, [pc, #172]	; c04c <spi_n_init+0x1a4>
    bf9c:	eb0003bc 	bl	ce94 <printk>
    bfa0:	eb000412 	bl	cff0 <clean_reboot>
    bfa4:	e3a01004 	mov	r1, #4, 0
    bfa8:	e3a00008 	mov	r0, #8, 0
    bfac:	eb00061c 	bl	d824 <gpio_set_function>
    bfb0:	eaffffcf 	b	bef4 <spi_n_init+0x4c>
    bfb4:	e58d5000 	str	r5, [sp]
    bfb8:	e59f3090 	ldr	r3, [pc, #144]	; c050 <spi_n_init+0x1a8>
    bfbc:	e59f2080 	ldr	r2, [pc, #128]	; c044 <spi_n_init+0x19c>
    bfc0:	e59f1080 	ldr	r1, [pc, #128]	; c048 <spi_n_init+0x1a0>
    bfc4:	e59f0088 	ldr	r0, [pc, #136]	; c054 <spi_n_init+0x1ac>
    bfc8:	eb0003b1 	bl	ce94 <printk>
    bfcc:	eb000407 	bl	cff0 <clean_reboot>
    bfd0:	e59f305c 	ldr	r3, [pc, #92]	; c034 <spi_n_init+0x18c>
    bfd4:	e3a02001 	mov	r2, #1, 0
    bfd8:	e5832008 	str	r2, [r3, #8]
    bfdc:	e3a01004 	mov	r1, #4, 0
    bfe0:	e3a00009 	mov	r0, #9, 0
    bfe4:	eb00060e 	bl	d824 <gpio_set_function>
    bfe8:	e3a01004 	mov	r1, #4, 0
    bfec:	e3a0000a 	mov	r0, #10, 0
    bff0:	eb00060b 	bl	d824 <gpio_set_function>
    bff4:	e3a01004 	mov	r1, #4, 0
    bff8:	e3a0000b 	mov	r0, #11, 0
    bffc:	eb000608 	bl	d824 <gpio_set_function>
    c000:	eaffffbf 	b	bf04 <spi_n_init+0x5c>
    c004:	e58d000c 	str	r0, [sp, #12]
    c008:	e58d5008 	str	r5, [sp, #8]
    c00c:	e59f3044 	ldr	r3, [pc, #68]	; c058 <spi_n_init+0x1b0>
    c010:	e58d3004 	str	r3, [sp, #4]
    c014:	e59f3040 	ldr	r3, [pc, #64]	; c05c <spi_n_init+0x1b4>
    c018:	e58d3000 	str	r3, [sp]
    c01c:	e3a03f8e 	mov	r3, #568	; 0x238
    c020:	e59f201c 	ldr	r2, [pc, #28]	; c044 <spi_n_init+0x19c>
    c024:	e59f101c 	ldr	r1, [pc, #28]	; c048 <spi_n_init+0x1a0>
    c028:	e59f0030 	ldr	r0, [pc, #48]	; c060 <spi_n_init+0x1b8>
    c02c:	eb000398 	bl	ce94 <printk>
    c030:	eb0003ee 	bl	cff0 <clean_reboot>
    c034:	0000f360 	.word	0x0000f360
    c038:	20204000 	.word	0x20204000
    c03c:	20204008 	.word	0x20204008
    c040:	00000213 	.word	0x00000213
    c044:	0000efa0 	.word	0x0000efa0
    c048:	0000ed70 	.word	0x0000ed70
    c04c:	0000ee98 	.word	0x0000ee98
    c050:	00000222 	.word	0x00000222
    c054:	0000eee8 	.word	0x0000eee8
    c058:	0000ef40 	.word	0x0000ef40
    c05c:	0000ef54 	.word	0x0000ef54
    c060:	0000ef10 	.word	0x0000ef10

0000c064 <sw_uart_put8>:
    c064:	e92d41f0 	push	{r4, r5, r6, r7, r8, lr}
    c068:	e1a08001 	mov	r8, r1
    c06c:	e5d07000 	ldrb	r7, [r0]
    c070:	e5906008 	ldr	r6, [r0, #8]
    c074:	ee1f4f3c 	mrc	15, 0, r4, cr15, cr12, {1}
    c078:	e3a01000 	mov	r1, #0, 0
    c07c:	e1a00007 	mov	r0, r7
    c080:	eb000529 	bl	d52c <gpio_write>
    c084:	ee1f3f3c 	mrc	15, 0, r3, cr15, cr12, {1}
    c088:	e0433004 	sub	r3, r3, r4
    c08c:	e1560003 	cmp	r6, r3
    c090:	8afffffb 	bhi	c084 <sw_uart_put8+0x20>
    c094:	e1a05086 	lsl	r5, r6, #1
    c098:	e2081001 	and	r1, r8, #1, 0
    c09c:	e1a00007 	mov	r0, r7
    c0a0:	eb000521 	bl	d52c <gpio_write>
    c0a4:	ee1f3f3c 	mrc	15, 0, r3, cr15, cr12, {1}
    c0a8:	e0433004 	sub	r3, r3, r4
    c0ac:	e1550003 	cmp	r5, r3
    c0b0:	8afffffb 	bhi	c0a4 <sw_uart_put8+0x40>
    c0b4:	e0865005 	add	r5, r6, r5
    c0b8:	e1a010a8 	lsr	r1, r8, #1
    c0bc:	e2011001 	and	r1, r1, #1, 0
    c0c0:	e1a00007 	mov	r0, r7
    c0c4:	eb000518 	bl	d52c <gpio_write>
    c0c8:	ee1f3f3c 	mrc	15, 0, r3, cr15, cr12, {1}
    c0cc:	e0433004 	sub	r3, r3, r4
    c0d0:	e1550003 	cmp	r5, r3
    c0d4:	8afffffb 	bhi	c0c8 <sw_uart_put8+0x64>
    c0d8:	e0865005 	add	r5, r6, r5
    c0dc:	e1a01128 	lsr	r1, r8, #2
    c0e0:	e2011001 	and	r1, r1, #1, 0
    c0e4:	e1a00007 	mov	r0, r7
    c0e8:	eb00050f 	bl	d52c <gpio_write>
    c0ec:	ee1f3f3c 	mrc	15, 0, r3, cr15, cr12, {1}
    c0f0:	e0433004 	sub	r3, r3, r4
    c0f4:	e1550003 	cmp	r5, r3
    c0f8:	8afffffb 	bhi	c0ec <sw_uart_put8+0x88>
    c0fc:	e0865005 	add	r5, r6, r5
    c100:	e1a011a8 	lsr	r1, r8, #3
    c104:	e2011001 	and	r1, r1, #1, 0
    c108:	e1a00007 	mov	r0, r7
    c10c:	eb000506 	bl	d52c <gpio_write>
    c110:	ee1f3f3c 	mrc	15, 0, r3, cr15, cr12, {1}
    c114:	e0433004 	sub	r3, r3, r4
    c118:	e1550003 	cmp	r5, r3
    c11c:	8afffffb 	bhi	c110 <sw_uart_put8+0xac>
    c120:	e0865005 	add	r5, r6, r5
    c124:	e1a01228 	lsr	r1, r8, #4
    c128:	e2011001 	and	r1, r1, #1, 0
    c12c:	e1a00007 	mov	r0, r7
    c130:	eb0004fd 	bl	d52c <gpio_write>
    c134:	ee1f3f3c 	mrc	15, 0, r3, cr15, cr12, {1}
    c138:	e0433004 	sub	r3, r3, r4
    c13c:	e1550003 	cmp	r5, r3
    c140:	8afffffb 	bhi	c134 <sw_uart_put8+0xd0>
    c144:	e0865005 	add	r5, r6, r5
    c148:	e1a012a8 	lsr	r1, r8, #5
    c14c:	e2011001 	and	r1, r1, #1, 0
    c150:	e1a00007 	mov	r0, r7
    c154:	eb0004f4 	bl	d52c <gpio_write>
    c158:	ee1f3f3c 	mrc	15, 0, r3, cr15, cr12, {1}
    c15c:	e0433004 	sub	r3, r3, r4
    c160:	e1550003 	cmp	r5, r3
    c164:	8afffffb 	bhi	c158 <sw_uart_put8+0xf4>
    c168:	e0865005 	add	r5, r6, r5
    c16c:	e1a01328 	lsr	r1, r8, #6
    c170:	e2011001 	and	r1, r1, #1, 0
    c174:	e1a00007 	mov	r0, r7
    c178:	eb0004eb 	bl	d52c <gpio_write>
    c17c:	ee1f3f3c 	mrc	15, 0, r3, cr15, cr12, {1}
    c180:	e0433004 	sub	r3, r3, r4
    c184:	e1550003 	cmp	r5, r3
    c188:	8afffffb 	bhi	c17c <sw_uart_put8+0x118>
    c18c:	e0865005 	add	r5, r6, r5
    c190:	e1a013a8 	lsr	r1, r8, #7
    c194:	e1a00007 	mov	r0, r7
    c198:	eb0004e3 	bl	d52c <gpio_write>
    c19c:	ee1f3f3c 	mrc	15, 0, r3, cr15, cr12, {1}
    c1a0:	e0433004 	sub	r3, r3, r4
    c1a4:	e1550003 	cmp	r5, r3
    c1a8:	8afffffb 	bhi	c19c <sw_uart_put8+0x138>
    c1ac:	e0865005 	add	r5, r6, r5
    c1b0:	e3a01001 	mov	r1, #1, 0
    c1b4:	e1a00007 	mov	r0, r7
    c1b8:	eb0004db 	bl	d52c <gpio_write>
    c1bc:	ee1f3f3c 	mrc	15, 0, r3, cr15, cr12, {1}
    c1c0:	e0433004 	sub	r3, r3, r4
    c1c4:	e1550003 	cmp	r5, r3
    c1c8:	8afffffb 	bhi	c1bc <sw_uart_put8+0x158>
    c1cc:	e8bd81f0 	pop	{r4, r5, r6, r7, r8, pc}

0000c1d0 <sw_uart_get8_timeout>:
    c1d0:	e92d41f0 	push	{r4, r5, r6, r7, r8, lr}
    c1d4:	e1a07000 	mov	r7, r0
    c1d8:	e5d04001 	ldrb	r4, [r0, #1]
    c1dc:	e204601f 	and	r6, r4, #31, 0
    c1e0:	e59f3208 	ldr	r3, [pc, #520]	; c3f0 <sw_uart_get8_timeout+0x220>
    c1e4:	e5933034 	ldr	r3, [r3, #52]	; 0x34
    c1e8:	e1a03633 	lsr	r3, r3, r6
    c1ec:	e3130001 	tst	r3, #1, 0
    c1f0:	0a00000d 	beq	c22c <sw_uart_get8_timeout+0x5c>
    c1f4:	e1a05001 	mov	r5, r1
    c1f8:	eb00040d 	bl	d234 <timer_get_usec_raw>
    c1fc:	e1a08000 	mov	r8, r0
    c200:	e59f31e8 	ldr	r3, [pc, #488]	; c3f0 <sw_uart_get8_timeout+0x220>
    c204:	e5933034 	ldr	r3, [r3, #52]	; 0x34
    c208:	e1a03633 	lsr	r3, r3, r6
    c20c:	e3130001 	tst	r3, #1, 0
    c210:	0a000072 	beq	c3e0 <sw_uart_get8_timeout+0x210>
    c214:	eb000406 	bl	d234 <timer_get_usec_raw>
    c218:	e0403008 	sub	r3, r0, r8
    c21c:	e1550003 	cmp	r5, r3
    c220:	2afffff6 	bcs	c200 <sw_uart_get8_timeout+0x30>
    c224:	e3a03000 	mov	r3, #0, 0
    c228:	ea000000 	b	c230 <sw_uart_get8_timeout+0x60>
    c22c:	e3a03001 	mov	r3, #1, 0
    c230:	e3530000 	cmp	r3, #0, 0
    c234:	0a00006b 	beq	c3e8 <sw_uart_get8_timeout+0x218>
    c238:	ee1f3f3c 	mrc	15, 0, r3, cr15, cr12, {1}
    c23c:	e597c008 	ldr	ip, [r7, #8]
    c240:	e1a0e0ac 	lsr	lr, ip, #1
    c244:	e08c10ac 	add	r1, ip, ip, lsr #1
    c248:	ee1f2f3c 	mrc	15, 0, r2, cr15, cr12, {1}
    c24c:	e0422003 	sub	r2, r2, r3
    c250:	e1510002 	cmp	r1, r2
    c254:	8afffffb 	bhi	c248 <sw_uart_get8_timeout+0x78>
    c258:	e204101f 	and	r1, r4, #31, 0
    c25c:	e59f218c 	ldr	r2, [pc, #396]	; c3f0 <sw_uart_get8_timeout+0x220>
    c260:	e5920034 	ldr	r0, [r2, #52]	; 0x34
    c264:	e1a00130 	lsr	r0, r0, r1
    c268:	e2005001 	and	r5, r0, #1, 0
    c26c:	e08e408c 	add	r4, lr, ip, lsl #1
    c270:	ee1f2f3c 	mrc	15, 0, r2, cr15, cr12, {1}
    c274:	e0422003 	sub	r2, r2, r3
    c278:	e1540002 	cmp	r4, r2
    c27c:	8afffffb 	bhi	c270 <sw_uart_get8_timeout+0xa0>
    c280:	e59f2168 	ldr	r2, [pc, #360]	; c3f0 <sw_uart_get8_timeout+0x220>
    c284:	e5920034 	ldr	r0, [r2, #52]	; 0x34
    c288:	e1a00130 	lsr	r0, r0, r1
    c28c:	e1a00080 	lsl	r0, r0, #1
    c290:	e2000002 	and	r0, r0, #2, 0
    c294:	e1800005 	orr	r0, r0, r5
    c298:	e08c408c 	add	r4, ip, ip, lsl #1
    c29c:	e084400e 	add	r4, r4, lr
    c2a0:	ee1f2f3c 	mrc	15, 0, r2, cr15, cr12, {1}
    c2a4:	e0422003 	sub	r2, r2, r3
    c2a8:	e1540002 	cmp	r4, r2
    c2ac:	8afffffb 	bhi	c2a0 <sw_uart_get8_timeout+0xd0>
    c2b0:	e59f2138 	ldr	r2, [pc, #312]	; c3f0 <sw_uart_get8_timeout+0x220>
    c2b4:	e5922034 	ldr	r2, [r2, #52]	; 0x34
    c2b8:	e1a02132 	lsr	r2, r2, r1
    c2bc:	e1a02102 	lsl	r2, r2, #2
    c2c0:	e2022004 	and	r2, r2, #4, 0
    c2c4:	e1800002 	orr	r0, r0, r2
    c2c8:	e08e410c 	add	r4, lr, ip, lsl #2
    c2cc:	ee1f2f3c 	mrc	15, 0, r2, cr15, cr12, {1}
    c2d0:	e0422003 	sub	r2, r2, r3
    c2d4:	e1540002 	cmp	r4, r2
    c2d8:	8afffffb 	bhi	c2cc <sw_uart_get8_timeout+0xfc>
    c2dc:	e59f210c 	ldr	r2, [pc, #268]	; c3f0 <sw_uart_get8_timeout+0x220>
    c2e0:	e5922034 	ldr	r2, [r2, #52]	; 0x34
    c2e4:	e1a02132 	lsr	r2, r2, r1
    c2e8:	e1a02182 	lsl	r2, r2, #3
    c2ec:	e2022008 	and	r2, r2, #8, 0
    c2f0:	e1800002 	orr	r0, r0, r2
    c2f4:	e08c410c 	add	r4, ip, ip, lsl #2
    c2f8:	e084400e 	add	r4, r4, lr
    c2fc:	ee1f2f3c 	mrc	15, 0, r2, cr15, cr12, {1}
    c300:	e0422003 	sub	r2, r2, r3
    c304:	e1540002 	cmp	r4, r2
    c308:	8afffffb 	bhi	c2fc <sw_uart_get8_timeout+0x12c>
    c30c:	e59f20dc 	ldr	r2, [pc, #220]	; c3f0 <sw_uart_get8_timeout+0x220>
    c310:	e5922034 	ldr	r2, [r2, #52]	; 0x34
    c314:	e1a02132 	lsr	r2, r2, r1
    c318:	e1a02202 	lsl	r2, r2, #4
    c31c:	e2022010 	and	r2, r2, #16, 0
    c320:	e1800002 	orr	r0, r0, r2
    c324:	e08c408c 	add	r4, ip, ip, lsl #1
    c328:	e08e4084 	add	r4, lr, r4, lsl #1
    c32c:	ee1f2f3c 	mrc	15, 0, r2, cr15, cr12, {1}
    c330:	e0422003 	sub	r2, r2, r3
    c334:	e1540002 	cmp	r4, r2
    c338:	8afffffb 	bhi	c32c <sw_uart_get8_timeout+0x15c>
    c33c:	e59f20ac 	ldr	r2, [pc, #172]	; c3f0 <sw_uart_get8_timeout+0x220>
    c340:	e5922034 	ldr	r2, [r2, #52]	; 0x34
    c344:	e1a02132 	lsr	r2, r2, r1
    c348:	e1a02282 	lsl	r2, r2, #5
    c34c:	e2022020 	and	r2, r2, #32, 0
    c350:	e1800002 	orr	r0, r0, r2
    c354:	e06c418c 	rsb	r4, ip, ip, lsl #3
    c358:	e084400e 	add	r4, r4, lr
    c35c:	ee1f2f3c 	mrc	15, 0, r2, cr15, cr12, {1}
    c360:	e0422003 	sub	r2, r2, r3
    c364:	e1540002 	cmp	r4, r2
    c368:	8afffffb 	bhi	c35c <sw_uart_get8_timeout+0x18c>
    c36c:	e59f207c 	ldr	r2, [pc, #124]	; c3f0 <sw_uart_get8_timeout+0x220>
    c370:	e5922034 	ldr	r2, [r2, #52]	; 0x34
    c374:	e1a02132 	lsr	r2, r2, r1
    c378:	e1a02302 	lsl	r2, r2, #6
    c37c:	e2022040 	and	r2, r2, #64, 0	; 0x40
    c380:	e1800002 	orr	r0, r0, r2
    c384:	e08e418c 	add	r4, lr, ip, lsl #3
    c388:	ee1f2f3c 	mrc	15, 0, r2, cr15, cr12, {1}
    c38c:	e0422003 	sub	r2, r2, r3
    c390:	e1540002 	cmp	r4, r2
    c394:	8afffffb 	bhi	c388 <sw_uart_get8_timeout+0x1b8>
    c398:	e59f2050 	ldr	r2, [pc, #80]	; c3f0 <sw_uart_get8_timeout+0x220>
    c39c:	e5922034 	ldr	r2, [r2, #52]	; 0x34
    c3a0:	e1a02132 	lsr	r2, r2, r1
    c3a4:	e1a02382 	lsl	r2, r2, #7
    c3a8:	e6ef2072 	uxtb	r2, r2
    c3ac:	e1800002 	orr	r0, r0, r2
    c3b0:	e08cc18c 	add	ip, ip, ip, lsl #3
    c3b4:	e08ce00e 	add	lr, ip, lr
    c3b8:	e59f2030 	ldr	r2, [pc, #48]	; c3f0 <sw_uart_get8_timeout+0x220>
    c3bc:	e5922034 	ldr	r2, [r2, #52]	; 0x34
    c3c0:	e1a02132 	lsr	r2, r2, r1
    c3c4:	e3120001 	tst	r2, #1, 0
    c3c8:	18bd81f0 	popne	{r4, r5, r6, r7, r8, pc}
    c3cc:	ee1f2f3c 	mrc	15, 0, r2, cr15, cr12, {1}
    c3d0:	e0422003 	sub	r2, r2, r3
    c3d4:	e15e0002 	cmp	lr, r2
    c3d8:	8afffff6 	bhi	c3b8 <sw_uart_get8_timeout+0x1e8>
    c3dc:	e8bd81f0 	pop	{r4, r5, r6, r7, r8, pc}
    c3e0:	e3a03001 	mov	r3, #1, 0
    c3e4:	eaffff91 	b	c230 <sw_uart_get8_timeout+0x60>
    c3e8:	e3e00000 	mvn	r0, #0, 0
    c3ec:	e8bd81f0 	pop	{r4, r5, r6, r7, r8, pc}
    c3f0:	20200000 	.word	0x20200000

0000c3f4 <sw_uart_mk_helper>:
    c3f4:	e92d41f0 	push	{r4, r5, r6, r7, r8, lr}
    c3f8:	e24dd008 	sub	sp, sp, #8, 0
    c3fc:	e1a04000 	mov	r4, r0
    c400:	e1a06001 	mov	r6, r1
    c404:	e1a07002 	mov	r7, r2
    c408:	e1a05003 	mov	r5, r3
    c40c:	e59d8020 	ldr	r8, [sp, #32]
    c410:	e1a00002 	mov	r0, r2
    c414:	eb000454 	bl	d56c <gpio_set_input>
    c418:	e1a00006 	mov	r0, r6
    c41c:	eb0003d2 	bl	d36c <gpio_set_output>
    c420:	e3a01001 	mov	r1, #1, 0
    c424:	e1a00006 	mov	r0, r6
    c428:	eb00043f 	bl	d52c <gpio_write>
    c42c:	e0020895 	mul	r2, r5, r8
    c430:	e59f305c 	ldr	r3, [pc, #92]	; c494 <sw_uart_mk_helper+0xa0>
    c434:	e0433005 	sub	r3, r3, r5
    c438:	e1530002 	cmp	r3, r2
    c43c:	8a00000c 	bhi	c474 <sw_uart_mk_helper+0x80>
    c440:	e59f304c 	ldr	r3, [pc, #76]	; c494 <sw_uart_mk_helper+0xa0>
    c444:	e0853003 	add	r3, r5, r3
    c448:	e1530002 	cmp	r3, r2
    c44c:	3a000008 	bcc	c474 <sw_uart_mk_helper+0x80>
    c450:	e5c46000 	strb	r6, [r4]
    c454:	e5c47001 	strb	r7, [r4, #1]
    c458:	e5845004 	str	r5, [r4, #4]
    c45c:	e5848008 	str	r8, [r4, #8]
    c460:	e59d3024 	ldr	r3, [sp, #36]	; 0x24
    c464:	e584300c 	str	r3, [r4, #12]
    c468:	e1a00004 	mov	r0, r4
    c46c:	e28dd008 	add	sp, sp, #8, 0
    c470:	e8bd81f0 	pop	{r4, r5, r6, r7, r8, pc}
    c474:	e59f301c 	ldr	r3, [pc, #28]	; c498 <sw_uart_mk_helper+0xa4>
    c478:	e58d3000 	str	r3, [sp]
    c47c:	e3a0305a 	mov	r3, #90, 0	; 0x5a
    c480:	e59f2014 	ldr	r2, [pc, #20]	; c49c <sw_uart_mk_helper+0xa8>
    c484:	e59f1014 	ldr	r1, [pc, #20]	; c4a0 <sw_uart_mk_helper+0xac>
    c488:	e59f0014 	ldr	r0, [pc, #20]	; c4a4 <sw_uart_mk_helper+0xb0>
    c48c:	eb000280 	bl	ce94 <printk>
    c490:	eb0002d6 	bl	cff0 <clean_reboot>
    c494:	29b92700 	.word	0x29b92700
    c498:	0000efb8 	.word	0x0000efb8
    c49c:	0000eff8 	.word	0x0000eff8
    c4a0:	0000efac 	.word	0x0000efac
    c4a4:	0000ee58 	.word	0x0000ee58

0000c4a8 <sw_uart_get8>:
    c4a8:	e92d4010 	push	{r4, lr}
    c4ac:	e3e01000 	mvn	r1, #0, 0
    c4b0:	ebffff46 	bl	c1d0 <sw_uart_get8_timeout>
    c4b4:	e8bd8010 	pop	{r4, pc}

0000c4b8 <sw_uart_putk>:
    c4b8:	e92d4070 	push	{r4, r5, r6, lr}
    c4bc:	e1a05000 	mov	r5, r0
    c4c0:	e1a04001 	mov	r4, r1
    c4c4:	ea000002 	b	c4d4 <sw_uart_putk+0x1c>
    c4c8:	e1a00005 	mov	r0, r5
    c4cc:	ebfffee4 	bl	c064 <sw_uart_put8>
    c4d0:	e2844001 	add	r4, r4, #1, 0
    c4d4:	e5d41000 	ldrb	r1, [r4]
    c4d8:	e3510000 	cmp	r1, #0, 0
    c4dc:	1afffff9 	bne	c4c8 <sw_uart_putk+0x10>
    c4e0:	e8bd8070 	pop	{r4, r5, r6, pc}

0000c4e4 <sw_uart_gets>:
    c4e4:	e92d41f0 	push	{r4, r5, r6, r7, r8, lr}
    c4e8:	e1a08000 	mov	r8, r0
    c4ec:	e1a05001 	mov	r5, r1
    c4f0:	e1a07002 	mov	r7, r2
    c4f4:	e3a04000 	mov	r4, #0, 0
    c4f8:	ea000000 	b	c500 <sw_uart_gets+0x1c>
    c4fc:	e2844001 	add	r4, r4, #1, 0
    c500:	e2473001 	sub	r3, r7, #1, 0
    c504:	e1a06004 	mov	r6, r4
    c508:	e1530004 	cmp	r3, r4
    c50c:	9a000005 	bls	c528 <sw_uart_gets+0x44>
    c510:	e1a00008 	mov	r0, r8
    c514:	ebffffe3 	bl	c4a8 <sw_uart_get8>
    c518:	e6ef0070 	uxtb	r0, r0
    c51c:	e7c50004 	strb	r0, [r5, r4]
    c520:	e350000a 	cmp	r0, #10, 0
    c524:	1afffff4 	bne	c4fc <sw_uart_gets+0x18>
    c528:	e2866001 	add	r6, r6, #1, 0
    c52c:	e3a03000 	mov	r3, #0, 0
    c530:	e7c53006 	strb	r3, [r5, r6]
    c534:	e1a00004 	mov	r0, r4
    c538:	e8bd81f0 	pop	{r4, r5, r6, r7, r8, pc}

0000c53c <sw_uart_write>:
    c53c:	e92d41f0 	push	{r4, r5, r6, r7, r8, lr}
    c540:	e1a07000 	mov	r7, r0
    c544:	e1a06001 	mov	r6, r1
    c548:	e1a05002 	mov	r5, r2
    c54c:	e3a04000 	mov	r4, #0, 0
    c550:	ea000003 	b	c564 <sw_uart_write+0x28>
    c554:	e7d61004 	ldrb	r1, [r6, r4]
    c558:	e1a00007 	mov	r0, r7
    c55c:	ebfffec0 	bl	c064 <sw_uart_put8>
    c560:	e2844001 	add	r4, r4, #1, 0
    c564:	e1540005 	cmp	r4, r5
    c568:	3afffff9 	bcc	c554 <sw_uart_write+0x18>
    c56c:	e8bd81f0 	pop	{r4, r5, r6, r7, r8, pc}

0000c570 <sw_uart_read>:
    c570:	e92d41f0 	push	{r4, r5, r6, r7, r8, lr}
    c574:	e1a07000 	mov	r7, r0
    c578:	e1a06001 	mov	r6, r1
    c57c:	e1a05002 	mov	r5, r2
    c580:	e3a04000 	mov	r4, #0, 0
    c584:	ea000003 	b	c598 <sw_uart_read+0x28>
    c588:	e1a00007 	mov	r0, r7
    c58c:	ebffffc5 	bl	c4a8 <sw_uart_get8>
    c590:	e7c60004 	strb	r0, [r6, r4]
    c594:	e2844001 	add	r4, r4, #1, 0
    c598:	e1540005 	cmp	r4, r5
    c59c:	3afffff9 	bcc	c588 <sw_uart_read+0x18>
    c5a0:	e8bd81f0 	pop	{r4, r5, r6, r7, r8, pc}

0000c5a4 <sw_uart_read_timeout>:
    c5a4:	e92d43f0 	push	{r4, r5, r6, r7, r8, r9, lr}
    c5a8:	e24dd00c 	sub	sp, sp, #12, 0
    c5ac:	e2526000 	subs	r6, r2, #0, 0
    c5b0:	0a00000e 	beq	c5f0 <sw_uart_read_timeout+0x4c>
    c5b4:	e1a07000 	mov	r7, r0
    c5b8:	e1a09001 	mov	r9, r1
    c5bc:	e1a08003 	mov	r8, r3
    c5c0:	e3a04000 	mov	r4, #0, 0
    c5c4:	e1a05004 	mov	r5, r4
    c5c8:	e1540006 	cmp	r4, r6
    c5cc:	2a00000f 	bcs	c610 <sw_uart_read_timeout+0x6c>
    c5d0:	e1a01008 	mov	r1, r8
    c5d4:	e1a00007 	mov	r0, r7
    c5d8:	ebfffefc 	bl	c1d0 <sw_uart_get8_timeout>
    c5dc:	e3500000 	cmp	r0, #0, 0
    c5e0:	ba00000a 	blt	c610 <sw_uart_read_timeout+0x6c>
    c5e4:	e7c90005 	strb	r0, [r9, r5]
    c5e8:	e2844001 	add	r4, r4, #1, 0
    c5ec:	eafffff4 	b	c5c4 <sw_uart_read_timeout+0x20>
    c5f0:	e59f3024 	ldr	r3, [pc, #36]	; c61c <sw_uart_read_timeout+0x78>
    c5f4:	e58d3000 	str	r3, [sp]
    c5f8:	e3a030a7 	mov	r3, #167, 0	; 0xa7
    c5fc:	e59f201c 	ldr	r2, [pc, #28]	; c620 <sw_uart_read_timeout+0x7c>
    c600:	e59f101c 	ldr	r1, [pc, #28]	; c624 <sw_uart_read_timeout+0x80>
    c604:	e59f001c 	ldr	r0, [pc, #28]	; c628 <sw_uart_read_timeout+0x84>
    c608:	eb000221 	bl	ce94 <printk>
    c60c:	eb000277 	bl	cff0 <clean_reboot>
    c610:	e1a00004 	mov	r0, r4
    c614:	e28dd00c 	add	sp, sp, #12, 0
    c618:	e8bd83f0 	pop	{r4, r5, r6, r7, r8, r9, pc}
    c61c:	0000efec 	.word	0x0000efec
    c620:	0000f00c 	.word	0x0000f00c
    c624:	0000efac 	.word	0x0000efac
    c628:	0000ee58 	.word	0x0000ee58

0000c62c <__udivsi3>:
    c62c:	e2512001 	subs	r2, r1, #1, 0
    c630:	012fff1e 	bxeq	lr
    c634:	3a000036 	bcc	c714 <__udivsi3+0xe8>
    c638:	e1500001 	cmp	r0, r1
    c63c:	9a000022 	bls	c6cc <__udivsi3+0xa0>
    c640:	e1110002 	tst	r1, r2
    c644:	0a000023 	beq	c6d8 <__udivsi3+0xac>
    c648:	e311020e 	tst	r1, #-536870912	; 0xe0000000
    c64c:	01a01181 	lsleq	r1, r1, #3
    c650:	03a03008 	moveq	r3, #8, 0
    c654:	13a03001 	movne	r3, #1, 0
    c658:	e3510201 	cmp	r1, #268435456	; 0x10000000
    c65c:	31510000 	cmpcc	r1, r0
    c660:	31a01201 	lslcc	r1, r1, #4
    c664:	31a03203 	lslcc	r3, r3, #4
    c668:	3afffffa 	bcc	c658 <__udivsi3+0x2c>
    c66c:	e3510102 	cmp	r1, #-2147483648	; 0x80000000
    c670:	31510000 	cmpcc	r1, r0
    c674:	31a01081 	lslcc	r1, r1, #1
    c678:	31a03083 	lslcc	r3, r3, #1
    c67c:	3afffffa 	bcc	c66c <__udivsi3+0x40>
    c680:	e3a02000 	mov	r2, #0, 0
    c684:	e1500001 	cmp	r0, r1
    c688:	20400001 	subcs	r0, r0, r1
    c68c:	21822003 	orrcs	r2, r2, r3
    c690:	e15000a1 	cmp	r0, r1, lsr #1
    c694:	204000a1 	subcs	r0, r0, r1, lsr #1
    c698:	218220a3 	orrcs	r2, r2, r3, lsr #1
    c69c:	e1500121 	cmp	r0, r1, lsr #2
    c6a0:	20400121 	subcs	r0, r0, r1, lsr #2
    c6a4:	21822123 	orrcs	r2, r2, r3, lsr #2
    c6a8:	e15001a1 	cmp	r0, r1, lsr #3
    c6ac:	204001a1 	subcs	r0, r0, r1, lsr #3
    c6b0:	218221a3 	orrcs	r2, r2, r3, lsr #3
    c6b4:	e3500000 	cmp	r0, #0, 0
    c6b8:	11b03223 	lsrsne	r3, r3, #4
    c6bc:	11a01221 	lsrne	r1, r1, #4
    c6c0:	1affffef 	bne	c684 <__udivsi3+0x58>
    c6c4:	e1a00002 	mov	r0, r2
    c6c8:	e12fff1e 	bx	lr
    c6cc:	03a00001 	moveq	r0, #1, 0
    c6d0:	13a00000 	movne	r0, #0, 0
    c6d4:	e12fff1e 	bx	lr
    c6d8:	e3510801 	cmp	r1, #65536	; 0x10000
    c6dc:	21a01821 	lsrcs	r1, r1, #16
    c6e0:	23a02010 	movcs	r2, #16, 0
    c6e4:	33a02000 	movcc	r2, #0, 0
    c6e8:	e3510c01 	cmp	r1, #256	; 0x100
    c6ec:	21a01421 	lsrcs	r1, r1, #8
    c6f0:	22822008 	addcs	r2, r2, #8, 0
    c6f4:	e3510010 	cmp	r1, #16, 0
    c6f8:	21a01221 	lsrcs	r1, r1, #4
    c6fc:	22822004 	addcs	r2, r2, #4, 0
    c700:	e3510004 	cmp	r1, #4, 0
    c704:	82822003 	addhi	r2, r2, #3, 0
    c708:	908220a1 	addls	r2, r2, r1, lsr #1
    c70c:	e1a00230 	lsr	r0, r0, r2
    c710:	e12fff1e 	bx	lr
    c714:	e3500000 	cmp	r0, #0, 0
    c718:	13e00000 	mvnne	r0, #0, 0
    c71c:	ea000007 	b	c740 <__aeabi_idiv0>

0000c720 <__aeabi_uidivmod>:
    c720:	e3510000 	cmp	r1, #0, 0
    c724:	0afffffa 	beq	c714 <__udivsi3+0xe8>
    c728:	e92d4003 	push	{r0, r1, lr}
    c72c:	ebffffbe 	bl	c62c <__udivsi3>
    c730:	e8bd4006 	pop	{r1, r2, lr}
    c734:	e0030092 	mul	r3, r2, r0
    c738:	e0411003 	sub	r1, r1, r3
    c73c:	e12fff1e 	bx	lr

0000c740 <__aeabi_idiv0>:
    c740:	e12fff1e 	bx	lr

0000c744 <memcpy>:
    c744:	e52db004 	push	{fp}		; (str fp, [sp, #-4]!)
    c748:	e28db000 	add	fp, sp, #0, 0
    c74c:	e24dd024 	sub	sp, sp, #36, 0	; 0x24
    c750:	e50b0018 	str	r0, [fp, #-24]	; 0xffffffe8
    c754:	e50b101c 	str	r1, [fp, #-28]	; 0xffffffe4
    c758:	e50b2020 	str	r2, [fp, #-32]	; 0xffffffe0
    c75c:	e51b3018 	ldr	r3, [fp, #-24]	; 0xffffffe8
    c760:	e50b300c 	str	r3, [fp, #-12]
    c764:	e51b301c 	ldr	r3, [fp, #-28]	; 0xffffffe4
    c768:	e50b3010 	str	r3, [fp, #-16]
    c76c:	e3a03000 	mov	r3, #0, 0
    c770:	e50b3008 	str	r3, [fp, #-8]
    c774:	ea00000a 	b	c7a4 <memcpy+0x60>
    c778:	e51b2010 	ldr	r2, [fp, #-16]
    c77c:	e51b3008 	ldr	r3, [fp, #-8]
    c780:	e0822003 	add	r2, r2, r3
    c784:	e51b100c 	ldr	r1, [fp, #-12]
    c788:	e51b3008 	ldr	r3, [fp, #-8]
    c78c:	e0813003 	add	r3, r1, r3
    c790:	e5d22000 	ldrb	r2, [r2]
    c794:	e5c32000 	strb	r2, [r3]
    c798:	e51b3008 	ldr	r3, [fp, #-8]
    c79c:	e2833001 	add	r3, r3, #1, 0
    c7a0:	e50b3008 	str	r3, [fp, #-8]
    c7a4:	e51b2008 	ldr	r2, [fp, #-8]
    c7a8:	e51b3020 	ldr	r3, [fp, #-32]	; 0xffffffe0
    c7ac:	e1520003 	cmp	r2, r3
    c7b0:	3afffff0 	bcc	c778 <memcpy+0x34>
    c7b4:	e51b3018 	ldr	r3, [fp, #-24]	; 0xffffffe8
    c7b8:	e1a00003 	mov	r0, r3
    c7bc:	e28bd000 	add	sp, fp, #0, 0
    c7c0:	e49db004 	pop	{fp}		; (ldr fp, [sp], #4)
    c7c4:	e12fff1e 	bx	lr

0000c7c8 <memcpy_end>:
    c7c8:	e52db004 	push	{fp}		; (str fp, [sp, #-4]!)
    c7cc:	e28db000 	add	fp, sp, #0, 0
    c7d0:	e320f000 	nop	{0}
    c7d4:	e28bd000 	add	sp, fp, #0, 0
    c7d8:	e49db004 	pop	{fp}		; (ldr fp, [sp], #4)
    c7dc:	e12fff1e 	bx	lr

0000c7e0 <memset>:
    c7e0:	e92d4800 	push	{fp, lr}
    c7e4:	e28db004 	add	fp, sp, #4, 0
    c7e8:	e24dd028 	sub	sp, sp, #40, 0	; 0x28
    c7ec:	e50b0018 	str	r0, [fp, #-24]	; 0xffffffe8
    c7f0:	e50b101c 	str	r1, [fp, #-28]	; 0xffffffe4
    c7f4:	e50b2020 	str	r2, [fp, #-32]	; 0xffffffe0
    c7f8:	e51b3020 	ldr	r3, [fp, #-32]	; 0xffffffe0
    c7fc:	e3530000 	cmp	r3, #0, 0
    c800:	1a000007 	bne	c824 <memset+0x44>
    c804:	e59f3150 	ldr	r3, [pc, #336]	; c95c <memset+0x17c>
    c808:	e58d3000 	str	r3, [sp]
    c80c:	e3a03008 	mov	r3, #8, 0
    c810:	e59f2148 	ldr	r2, [pc, #328]	; c960 <memset+0x180>
    c814:	e59f1148 	ldr	r1, [pc, #328]	; c964 <memset+0x184>
    c818:	e59f0148 	ldr	r0, [pc, #328]	; c968 <memset+0x188>
    c81c:	eb00019c 	bl	ce94 <printk>
    c820:	eb0001f2 	bl	cff0 <clean_reboot>
    c824:	e51b301c 	ldr	r3, [fp, #-28]	; 0xffffffe4
    c828:	e3530000 	cmp	r3, #0, 0
    c82c:	1a000035 	bne	c908 <memset+0x128>
    c830:	e51b3018 	ldr	r3, [fp, #-24]	; 0xffffffe8
    c834:	e2033007 	and	r3, r3, #7, 0
    c838:	e3530000 	cmp	r3, #0, 0
    c83c:	1a000017 	bne	c8a0 <memset+0xc0>
    c840:	e51b3020 	ldr	r3, [fp, #-32]	; 0xffffffe0
    c844:	e2033007 	and	r3, r3, #7, 0
    c848:	e3530000 	cmp	r3, #0, 0
    c84c:	1a000013 	bne	c8a0 <memset+0xc0>
    c850:	e51b3018 	ldr	r3, [fp, #-24]	; 0xffffffe8
    c854:	e50b3008 	str	r3, [fp, #-8]
    c858:	e51b3020 	ldr	r3, [fp, #-32]	; 0xffffffe0
    c85c:	e1a031a3 	lsr	r3, r3, #3
    c860:	e50b3020 	str	r3, [fp, #-32]	; 0xffffffe0
    c864:	ea000006 	b	c884 <memset+0xa4>
    c868:	e51b1008 	ldr	r1, [fp, #-8]
    c86c:	e2813008 	add	r3, r1, #8, 0
    c870:	e50b3008 	str	r3, [fp, #-8]
    c874:	e51b301c 	ldr	r3, [fp, #-28]	; 0xffffffe4
    c878:	e1a02003 	mov	r2, r3
    c87c:	e1a03fc2 	asr	r3, r2, #31
    c880:	e1c120f0 	strd	r2, [r1]
    c884:	e51b3020 	ldr	r3, [fp, #-32]	; 0xffffffe0
    c888:	e2432001 	sub	r2, r3, #1, 0
    c88c:	e50b2020 	str	r2, [fp, #-32]	; 0xffffffe0
    c890:	e3530000 	cmp	r3, #0, 0
    c894:	1afffff3 	bne	c868 <memset+0x88>
    c898:	e51b3008 	ldr	r3, [fp, #-8]
    c89c:	ea00002b 	b	c950 <memset+0x170>
    c8a0:	e51b3018 	ldr	r3, [fp, #-24]	; 0xffffffe8
    c8a4:	e2033003 	and	r3, r3, #3, 0
    c8a8:	e3530000 	cmp	r3, #0, 0
    c8ac:	1a000015 	bne	c908 <memset+0x128>
    c8b0:	e51b3020 	ldr	r3, [fp, #-32]	; 0xffffffe0
    c8b4:	e2033003 	and	r3, r3, #3, 0
    c8b8:	e3530000 	cmp	r3, #0, 0
    c8bc:	1a000011 	bne	c908 <memset+0x128>
    c8c0:	e51b3018 	ldr	r3, [fp, #-24]	; 0xffffffe8
    c8c4:	e50b300c 	str	r3, [fp, #-12]
    c8c8:	e51b3020 	ldr	r3, [fp, #-32]	; 0xffffffe0
    c8cc:	e1a03123 	lsr	r3, r3, #2
    c8d0:	e50b3020 	str	r3, [fp, #-32]	; 0xffffffe0
    c8d4:	ea000004 	b	c8ec <memset+0x10c>
    c8d8:	e51b300c 	ldr	r3, [fp, #-12]
    c8dc:	e2832004 	add	r2, r3, #4, 0
    c8e0:	e50b200c 	str	r2, [fp, #-12]
    c8e4:	e51b201c 	ldr	r2, [fp, #-28]	; 0xffffffe4
    c8e8:	e5832000 	str	r2, [r3]
    c8ec:	e51b3020 	ldr	r3, [fp, #-32]	; 0xffffffe0
    c8f0:	e2432001 	sub	r2, r3, #1, 0
    c8f4:	e50b2020 	str	r2, [fp, #-32]	; 0xffffffe0
    c8f8:	e3530000 	cmp	r3, #0, 0
    c8fc:	1afffff5 	bne	c8d8 <memset+0xf8>
    c900:	e51b300c 	ldr	r3, [fp, #-12]
    c904:	ea000011 	b	c950 <memset+0x170>
    c908:	e51b3018 	ldr	r3, [fp, #-24]	; 0xffffffe8
    c90c:	e50b3010 	str	r3, [fp, #-16]
    c910:	e51b2010 	ldr	r2, [fp, #-16]
    c914:	e51b3020 	ldr	r3, [fp, #-32]	; 0xffffffe0
    c918:	e0823003 	add	r3, r2, r3
    c91c:	e50b3014 	str	r3, [fp, #-20]	; 0xffffffec
    c920:	ea000005 	b	c93c <memset+0x15c>
    c924:	e51b3010 	ldr	r3, [fp, #-16]
    c928:	e2832001 	add	r2, r3, #1, 0
    c92c:	e50b2010 	str	r2, [fp, #-16]
    c930:	e51b201c 	ldr	r2, [fp, #-28]	; 0xffffffe4
    c934:	e6ef2072 	uxtb	r2, r2
    c938:	e5c32000 	strb	r2, [r3]
    c93c:	e51b2010 	ldr	r2, [fp, #-16]
    c940:	e51b3014 	ldr	r3, [fp, #-20]	; 0xffffffec
    c944:	e1520003 	cmp	r2, r3
    c948:	3afffff5 	bcc	c924 <memset+0x144>
    c94c:	e51b3010 	ldr	r3, [fp, #-16]
    c950:	e1a00003 	mov	r0, r3
    c954:	e24bd004 	sub	sp, fp, #4, 0
    c958:	e8bd8800 	pop	{fp, pc}
    c95c:	0000f064 	.word	0x0000f064
    c960:	0000f068 	.word	0x0000f068
    c964:	0000f024 	.word	0x0000f024
    c968:	0000f034 	.word	0x0000f034

0000c96c <emit_val>:
    c96c:	e92d4800 	push	{fp, lr}
    c970:	e28db004 	add	fp, sp, #4, 0
    c974:	e24dd038 	sub	sp, sp, #56, 0	; 0x38
    c978:	e50b0030 	str	r0, [fp, #-48]	; 0xffffffd0
    c97c:	e50b1034 	str	r1, [fp, #-52]	; 0xffffffcc
    c980:	e24b302c 	sub	r3, fp, #44, 0	; 0x2c
    c984:	e50b3008 	str	r3, [fp, #-8]
    c988:	e51b3030 	ldr	r3, [fp, #-48]	; 0xffffffd0
    c98c:	e3530010 	cmp	r3, #16, 0
    c990:	0a000033 	beq	ca64 <emit_val+0xf8>
    c994:	e51b3030 	ldr	r3, [fp, #-48]	; 0xffffffd0
    c998:	e3530010 	cmp	r3, #16, 0
    c99c:	8a00003f 	bhi	caa0 <emit_val+0x134>
    c9a0:	e51b3030 	ldr	r3, [fp, #-48]	; 0xffffffd0
    c9a4:	e3530002 	cmp	r3, #2, 0
    c9a8:	0a000004 	beq	c9c0 <emit_val+0x54>
    c9ac:	e51b3030 	ldr	r3, [fp, #-48]	; 0xffffffd0
    c9b0:	e353000a 	cmp	r3, #10, 0
    c9b4:	0a000011 	beq	ca00 <emit_val+0x94>
    c9b8:	ea000038 	b	caa0 <emit_val+0x134>
    c9bc:	e320f000 	nop	{0}
    c9c0:	e51b3034 	ldr	r3, [fp, #-52]	; 0xffffffcc
    c9c4:	e2032001 	and	r2, r3, #1, 0
    c9c8:	e51b3008 	ldr	r3, [fp, #-8]
    c9cc:	e2831001 	add	r1, r3, #1, 0
    c9d0:	e50b1008 	str	r1, [fp, #-8]
    c9d4:	e59f112c 	ldr	r1, [pc, #300]	; cb08 <emit_val+0x19c>
    c9d8:	e7d12002 	ldrb	r2, [r1, r2]
    c9dc:	e5c32000 	strb	r2, [r3]
    c9e0:	e51b3034 	ldr	r3, [fp, #-52]	; 0xffffffcc
    c9e4:	e1a030a3 	lsr	r3, r3, #1
    c9e8:	e50b3034 	str	r3, [fp, #-52]	; 0xffffffcc
    c9ec:	e51b3034 	ldr	r3, [fp, #-52]	; 0xffffffcc
    c9f0:	e3530000 	cmp	r3, #0, 0
    c9f4:	1afffff0 	bne	c9bc <emit_val+0x50>
    c9f8:	ea000030 	b	cac0 <emit_val+0x154>
    c9fc:	e320f000 	nop	{0}
    ca00:	e51b1034 	ldr	r1, [fp, #-52]	; 0xffffffcc
    ca04:	e59f3100 	ldr	r3, [pc, #256]	; cb0c <emit_val+0x1a0>
    ca08:	e0832193 	umull	r2, r3, r3, r1
    ca0c:	e1a021a3 	lsr	r2, r3, #3
    ca10:	e1a03002 	mov	r3, r2
    ca14:	e1a03103 	lsl	r3, r3, #2
    ca18:	e0833002 	add	r3, r3, r2
    ca1c:	e1a03083 	lsl	r3, r3, #1
    ca20:	e0412003 	sub	r2, r1, r3
    ca24:	e51b3008 	ldr	r3, [fp, #-8]
    ca28:	e2831001 	add	r1, r3, #1, 0
    ca2c:	e50b1008 	str	r1, [fp, #-8]
    ca30:	e59f10d8 	ldr	r1, [pc, #216]	; cb10 <emit_val+0x1a4>
    ca34:	e7d12002 	ldrb	r2, [r1, r2]
    ca38:	e5c32000 	strb	r2, [r3]
    ca3c:	e51b3034 	ldr	r3, [fp, #-52]	; 0xffffffcc
    ca40:	e59f20c4 	ldr	r2, [pc, #196]	; cb0c <emit_val+0x1a0>
    ca44:	e0832392 	umull	r2, r3, r2, r3
    ca48:	e1a031a3 	lsr	r3, r3, #3
    ca4c:	e50b3034 	str	r3, [fp, #-52]	; 0xffffffcc
    ca50:	e51b3034 	ldr	r3, [fp, #-52]	; 0xffffffcc
    ca54:	e3530000 	cmp	r3, #0, 0
    ca58:	1affffe7 	bne	c9fc <emit_val+0x90>
    ca5c:	ea000017 	b	cac0 <emit_val+0x154>
    ca60:	e320f000 	nop	{0}
    ca64:	e51b3034 	ldr	r3, [fp, #-52]	; 0xffffffcc
    ca68:	e203200f 	and	r2, r3, #15, 0
    ca6c:	e51b3008 	ldr	r3, [fp, #-8]
    ca70:	e2831001 	add	r1, r3, #1, 0
    ca74:	e50b1008 	str	r1, [fp, #-8]
    ca78:	e59f1094 	ldr	r1, [pc, #148]	; cb14 <emit_val+0x1a8>
    ca7c:	e7d12002 	ldrb	r2, [r1, r2]
    ca80:	e5c32000 	strb	r2, [r3]
    ca84:	e51b3034 	ldr	r3, [fp, #-52]	; 0xffffffcc
    ca88:	e1a03223 	lsr	r3, r3, #4
    ca8c:	e50b3034 	str	r3, [fp, #-52]	; 0xffffffcc
    ca90:	e51b3034 	ldr	r3, [fp, #-52]	; 0xffffffcc
    ca94:	e3530000 	cmp	r3, #0, 0
    ca98:	1afffff0 	bne	ca60 <emit_val+0xf4>
    ca9c:	ea000007 	b	cac0 <emit_val+0x154>
    caa0:	e51b3030 	ldr	r3, [fp, #-48]	; 0xffffffd0
    caa4:	e58d3000 	str	r3, [sp]
    caa8:	e3a03019 	mov	r3, #25, 0
    caac:	e59f2064 	ldr	r2, [pc, #100]	; cb18 <emit_val+0x1ac>
    cab0:	e59f1064 	ldr	r1, [pc, #100]	; cb1c <emit_val+0x1b0>
    cab4:	e59f0064 	ldr	r0, [pc, #100]	; cb20 <emit_val+0x1b4>
    cab8:	eb0000f5 	bl	ce94 <printk>
    cabc:	eb00014b 	bl	cff0 <clean_reboot>
    cac0:	ea000008 	b	cae8 <emit_val+0x17c>
    cac4:	e51b3008 	ldr	r3, [fp, #-8]
    cac8:	e2433001 	sub	r3, r3, #1, 0
    cacc:	e50b3008 	str	r3, [fp, #-8]
    cad0:	e59f304c 	ldr	r3, [pc, #76]	; cb24 <emit_val+0x1b8>
    cad4:	e5933000 	ldr	r3, [r3]
    cad8:	e51b2008 	ldr	r2, [fp, #-8]
    cadc:	e5d22000 	ldrb	r2, [r2]
    cae0:	e1a00002 	mov	r0, r2
    cae4:	e12fff33 	blx	r3
    cae8:	e24b302c 	sub	r3, fp, #44, 0	; 0x2c
    caec:	e51b2008 	ldr	r2, [fp, #-8]
    caf0:	e1520003 	cmp	r2, r3
    caf4:	8afffff2 	bhi	cac4 <emit_val+0x158>
    caf8:	e320f000 	nop	{0}
    cafc:	e320f000 	nop	{0}
    cb00:	e24bd004 	sub	sp, fp, #4, 0
    cb04:	e8bd8800 	pop	{fp, pc}
    cb08:	0000f0a4 	.word	0x0000f0a4
    cb0c:	cccccccd 	.word	0xcccccccd
    cb10:	0000f0a8 	.word	0x0000f0a8
    cb14:	0000f0b4 	.word	0x0000f0b4
    cb18:	0000f128 	.word	0x0000f128
    cb1c:	0000f070 	.word	0x0000f070
    cb20:	0000f080 	.word	0x0000f080
    cb24:	0000f348 	.word	0x0000f348

0000cb28 <vprintk>:
    cb28:	e92d4800 	push	{fp, lr}
    cb2c:	e28db004 	add	fp, sp, #4, 0
    cb30:	e24dd028 	sub	sp, sp, #40, 0	; 0x28
    cb34:	e50b0020 	str	r0, [fp, #-32]	; 0xffffffe0
    cb38:	e50b1024 	str	r1, [fp, #-36]	; 0xffffffdc
    cb3c:	ea0000c7 	b	ce60 <vprintk+0x338>
    cb40:	e51b3020 	ldr	r3, [fp, #-32]	; 0xffffffe0
    cb44:	e5d33000 	ldrb	r3, [r3]
    cb48:	e3530025 	cmp	r3, #37, 0	; 0x25
    cb4c:	0a000006 	beq	cb6c <vprintk+0x44>
    cb50:	e59f3328 	ldr	r3, [pc, #808]	; ce80 <vprintk+0x358>
    cb54:	e5933000 	ldr	r3, [r3]
    cb58:	e51b2020 	ldr	r2, [fp, #-32]	; 0xffffffe0
    cb5c:	e5d22000 	ldrb	r2, [r2]
    cb60:	e1a00002 	mov	r0, r2
    cb64:	e12fff33 	blx	r3
    cb68:	ea0000b9 	b	ce54 <vprintk+0x32c>
    cb6c:	e51b3020 	ldr	r3, [fp, #-32]	; 0xffffffe0
    cb70:	e2833001 	add	r3, r3, #1, 0
    cb74:	e50b3020 	str	r3, [fp, #-32]	; 0xffffffe0
    cb78:	e51b3020 	ldr	r3, [fp, #-32]	; 0xffffffe0
    cb7c:	e5d33000 	ldrb	r3, [r3]
    cb80:	e2433062 	sub	r3, r3, #98, 0	; 0x62
    cb84:	e3530016 	cmp	r3, #22, 0
    cb88:	979ff103 	ldrls	pc, [pc, r3, lsl #2]
    cb8c:	ea0000a7 	b	ce30 <vprintk+0x308>
    cb90:	0000cbec 	.word	0x0000cbec
    cb94:	0000cc2c 	.word	0x0000cc2c
    cb98:	0000cd90 	.word	0x0000cd90
    cb9c:	0000ce30 	.word	0x0000ce30
    cba0:	0000ce30 	.word	0x0000ce30
    cba4:	0000ce30 	.word	0x0000ce30
    cba8:	0000ce30 	.word	0x0000ce30
    cbac:	0000ce30 	.word	0x0000ce30
    cbb0:	0000ce30 	.word	0x0000ce30
    cbb4:	0000ce30 	.word	0x0000ce30
    cbb8:	0000cc50 	.word	0x0000cc50
    cbbc:	0000ce30 	.word	0x0000ce30
    cbc0:	0000ce30 	.word	0x0000ce30
    cbc4:	0000ce30 	.word	0x0000ce30
    cbc8:	0000cd50 	.word	0x0000cd50
    cbcc:	0000ce30 	.word	0x0000ce30
    cbd0:	0000ce30 	.word	0x0000ce30
    cbd4:	0000cde0 	.word	0x0000cde0
    cbd8:	0000ce30 	.word	0x0000ce30
    cbdc:	0000cc0c 	.word	0x0000cc0c
    cbe0:	0000ce30 	.word	0x0000ce30
    cbe4:	0000ce30 	.word	0x0000ce30
    cbe8:	0000cd50 	.word	0x0000cd50
    cbec:	e51b3024 	ldr	r3, [fp, #-36]	; 0xffffffdc
    cbf0:	e2832004 	add	r2, r3, #4, 0
    cbf4:	e50b2024 	str	r2, [fp, #-36]	; 0xffffffdc
    cbf8:	e5933000 	ldr	r3, [r3]
    cbfc:	e1a01003 	mov	r1, r3
    cc00:	e3a00002 	mov	r0, #2, 0
    cc04:	ebffff58 	bl	c96c <emit_val>
    cc08:	ea000091 	b	ce54 <vprintk+0x32c>
    cc0c:	e51b3024 	ldr	r3, [fp, #-36]	; 0xffffffdc
    cc10:	e2832004 	add	r2, r3, #4, 0
    cc14:	e50b2024 	str	r2, [fp, #-36]	; 0xffffffdc
    cc18:	e5933000 	ldr	r3, [r3]
    cc1c:	e1a01003 	mov	r1, r3
    cc20:	e3a0000a 	mov	r0, #10, 0
    cc24:	ebffff50 	bl	c96c <emit_val>
    cc28:	ea000089 	b	ce54 <vprintk+0x32c>
    cc2c:	e59f324c 	ldr	r3, [pc, #588]	; ce80 <vprintk+0x358>
    cc30:	e5932000 	ldr	r2, [r3]
    cc34:	e51b3024 	ldr	r3, [fp, #-36]	; 0xffffffdc
    cc38:	e2831004 	add	r1, r3, #4, 0
    cc3c:	e50b1024 	str	r1, [fp, #-36]	; 0xffffffdc
    cc40:	e5933000 	ldr	r3, [r3]
    cc44:	e1a00003 	mov	r0, r3
    cc48:	e12fff32 	blx	r2
    cc4c:	ea000080 	b	ce54 <vprintk+0x32c>
    cc50:	e51b3020 	ldr	r3, [fp, #-32]	; 0xffffffe0
    cc54:	e2833001 	add	r3, r3, #1, 0
    cc58:	e50b3020 	str	r3, [fp, #-32]	; 0xffffffe0
    cc5c:	e51b3020 	ldr	r3, [fp, #-32]	; 0xffffffe0
    cc60:	e5d33000 	ldrb	r3, [r3]
    cc64:	e353006c 	cmp	r3, #108, 0	; 0x6c
    cc68:	0a000007 	beq	cc8c <vprintk+0x164>
    cc6c:	e51b3020 	ldr	r3, [fp, #-32]	; 0xffffffe0
    cc70:	e58d3000 	str	r3, [sp]
    cc74:	e3a03039 	mov	r3, #57, 0	; 0x39
    cc78:	e59f2204 	ldr	r2, [pc, #516]	; ce84 <vprintk+0x35c>
    cc7c:	e59f1204 	ldr	r1, [pc, #516]	; ce88 <vprintk+0x360>
    cc80:	e59f0204 	ldr	r0, [pc, #516]	; ce8c <vprintk+0x364>
    cc84:	eb000082 	bl	ce94 <printk>
    cc88:	eb0000d8 	bl	cff0 <clean_reboot>
    cc8c:	e51b3020 	ldr	r3, [fp, #-32]	; 0xffffffe0
    cc90:	e2833001 	add	r3, r3, #1, 0
    cc94:	e50b3020 	str	r3, [fp, #-32]	; 0xffffffe0
    cc98:	e51b3020 	ldr	r3, [fp, #-32]	; 0xffffffe0
    cc9c:	e5d33000 	ldrb	r3, [r3]
    cca0:	e3530078 	cmp	r3, #120, 0	; 0x78
    cca4:	0a000007 	beq	ccc8 <vprintk+0x1a0>
    cca8:	e51b3020 	ldr	r3, [fp, #-32]	; 0xffffffe0
    ccac:	e58d3000 	str	r3, [sp]
    ccb0:	e3a0303c 	mov	r3, #60, 0	; 0x3c
    ccb4:	e59f21c8 	ldr	r2, [pc, #456]	; ce84 <vprintk+0x35c>
    ccb8:	e59f11c8 	ldr	r1, [pc, #456]	; ce88 <vprintk+0x360>
    ccbc:	e59f01c8 	ldr	r0, [pc, #456]	; ce8c <vprintk+0x364>
    ccc0:	eb000073 	bl	ce94 <printk>
    ccc4:	eb0000c9 	bl	cff0 <clean_reboot>
    ccc8:	e59f31b0 	ldr	r3, [pc, #432]	; ce80 <vprintk+0x358>
    cccc:	e5933000 	ldr	r3, [r3]
    ccd0:	e3a00030 	mov	r0, #48, 0	; 0x30
    ccd4:	e12fff33 	blx	r3
    ccd8:	e59f31a0 	ldr	r3, [pc, #416]	; ce80 <vprintk+0x358>
    ccdc:	e5933000 	ldr	r3, [r3]
    cce0:	e3a00078 	mov	r0, #120, 0	; 0x78
    cce4:	e12fff33 	blx	r3
    cce8:	e51b3024 	ldr	r3, [fp, #-36]	; 0xffffffdc
    ccec:	e2833007 	add	r3, r3, #7, 0
    ccf0:	e3c33007 	bic	r3, r3, #7, 0
    ccf4:	e2832008 	add	r2, r3, #8, 0
    ccf8:	e50b2024 	str	r2, [fp, #-36]	; 0xffffffdc
    ccfc:	e1c320d0 	ldrd	r2, [r3]
    cd00:	e14b21f4 	strd	r2, [fp, #-20]	; 0xffffffec
    cd04:	e14b01d4 	ldrd	r0, [fp, #-20]	; 0xffffffec
    cd08:	e3a02000 	mov	r2, #0, 0
    cd0c:	e3a03000 	mov	r3, #0, 0
    cd10:	e1a02001 	mov	r2, r1
    cd14:	e3a03000 	mov	r3, #0, 0
    cd18:	e1a03002 	mov	r3, r2
    cd1c:	e50b3018 	str	r3, [fp, #-24]	; 0xffffffe8
    cd20:	e51b3014 	ldr	r3, [fp, #-20]	; 0xffffffec
    cd24:	e50b301c 	str	r3, [fp, #-28]	; 0xffffffe4
    cd28:	e51b3018 	ldr	r3, [fp, #-24]	; 0xffffffe8
    cd2c:	e3530000 	cmp	r3, #0, 0
    cd30:	0a000002 	beq	cd40 <vprintk+0x218>
    cd34:	e51b1018 	ldr	r1, [fp, #-24]	; 0xffffffe8
    cd38:	e3a00010 	mov	r0, #16, 0
    cd3c:	ebffff0a 	bl	c96c <emit_val>
    cd40:	e51b101c 	ldr	r1, [fp, #-28]	; 0xffffffe4
    cd44:	e3a00010 	mov	r0, #16, 0
    cd48:	ebffff07 	bl	c96c <emit_val>
    cd4c:	ea000040 	b	ce54 <vprintk+0x32c>
    cd50:	e59f3128 	ldr	r3, [pc, #296]	; ce80 <vprintk+0x358>
    cd54:	e5933000 	ldr	r3, [r3]
    cd58:	e3a00030 	mov	r0, #48, 0	; 0x30
    cd5c:	e12fff33 	blx	r3
    cd60:	e59f3118 	ldr	r3, [pc, #280]	; ce80 <vprintk+0x358>
    cd64:	e5933000 	ldr	r3, [r3]
    cd68:	e3a00078 	mov	r0, #120, 0	; 0x78
    cd6c:	e12fff33 	blx	r3
    cd70:	e51b3024 	ldr	r3, [fp, #-36]	; 0xffffffdc
    cd74:	e2832004 	add	r2, r3, #4, 0
    cd78:	e50b2024 	str	r2, [fp, #-36]	; 0xffffffdc
    cd7c:	e5933000 	ldr	r3, [r3]
    cd80:	e1a01003 	mov	r1, r3
    cd84:	e3a00010 	mov	r0, #16, 0
    cd88:	ebfffef7 	bl	c96c <emit_val>
    cd8c:	ea000030 	b	ce54 <vprintk+0x32c>
    cd90:	e51b3024 	ldr	r3, [fp, #-36]	; 0xffffffdc
    cd94:	e2832004 	add	r2, r3, #4, 0
    cd98:	e50b2024 	str	r2, [fp, #-36]	; 0xffffffdc
    cd9c:	e5933000 	ldr	r3, [r3]
    cda0:	e50b3008 	str	r3, [fp, #-8]
    cda4:	e51b3008 	ldr	r3, [fp, #-8]
    cda8:	e3530000 	cmp	r3, #0, 0
    cdac:	aa000006 	bge	cdcc <vprintk+0x2a4>
    cdb0:	e59f30c8 	ldr	r3, [pc, #200]	; ce80 <vprintk+0x358>
    cdb4:	e5933000 	ldr	r3, [r3]
    cdb8:	e3a0002d 	mov	r0, #45, 0	; 0x2d
    cdbc:	e12fff33 	blx	r3
    cdc0:	e51b3008 	ldr	r3, [fp, #-8]
    cdc4:	e2633000 	rsb	r3, r3, #0, 0
    cdc8:	e50b3008 	str	r3, [fp, #-8]
    cdcc:	e51b3008 	ldr	r3, [fp, #-8]
    cdd0:	e1a01003 	mov	r1, r3
    cdd4:	e3a0000a 	mov	r0, #10, 0
    cdd8:	ebfffee3 	bl	c96c <emit_val>
    cddc:	ea00001c 	b	ce54 <vprintk+0x32c>
    cde0:	e51b3024 	ldr	r3, [fp, #-36]	; 0xffffffdc
    cde4:	e2832004 	add	r2, r3, #4, 0
    cde8:	e50b2024 	str	r2, [fp, #-36]	; 0xffffffdc
    cdec:	e5933000 	ldr	r3, [r3]
    cdf0:	e50b300c 	str	r3, [fp, #-12]
    cdf4:	ea000008 	b	ce1c <vprintk+0x2f4>
    cdf8:	e59f3080 	ldr	r3, [pc, #128]	; ce80 <vprintk+0x358>
    cdfc:	e5933000 	ldr	r3, [r3]
    ce00:	e51b200c 	ldr	r2, [fp, #-12]
    ce04:	e5d22000 	ldrb	r2, [r2]
    ce08:	e1a00002 	mov	r0, r2
    ce0c:	e12fff33 	blx	r3
    ce10:	e51b300c 	ldr	r3, [fp, #-12]
    ce14:	e2833001 	add	r3, r3, #1, 0
    ce18:	e50b300c 	str	r3, [fp, #-12]
    ce1c:	e51b300c 	ldr	r3, [fp, #-12]
    ce20:	e5d33000 	ldrb	r3, [r3]
    ce24:	e3530000 	cmp	r3, #0, 0
    ce28:	1afffff2 	bne	cdf8 <vprintk+0x2d0>
    ce2c:	ea000008 	b	ce54 <vprintk+0x32c>
    ce30:	e51b3020 	ldr	r3, [fp, #-32]	; 0xffffffe0
    ce34:	e5d33000 	ldrb	r3, [r3]
    ce38:	e58d3000 	str	r3, [sp]
    ce3c:	e3a03060 	mov	r3, #96, 0	; 0x60
    ce40:	e59f203c 	ldr	r2, [pc, #60]	; ce84 <vprintk+0x35c>
    ce44:	e59f103c 	ldr	r1, [pc, #60]	; ce88 <vprintk+0x360>
    ce48:	e59f0040 	ldr	r0, [pc, #64]	; ce90 <vprintk+0x368>
    ce4c:	eb000010 	bl	ce94 <printk>
    ce50:	eb000066 	bl	cff0 <clean_reboot>
    ce54:	e51b3020 	ldr	r3, [fp, #-32]	; 0xffffffe0
    ce58:	e2833001 	add	r3, r3, #1, 0
    ce5c:	e50b3020 	str	r3, [fp, #-32]	; 0xffffffe0
    ce60:	e51b3020 	ldr	r3, [fp, #-32]	; 0xffffffe0
    ce64:	e5d33000 	ldrb	r3, [r3]
    ce68:	e3530000 	cmp	r3, #0, 0
    ce6c:	1affff33 	bne	cb40 <vprintk+0x18>
    ce70:	e3a03000 	mov	r3, #0, 0
    ce74:	e1a00003 	mov	r0, r3
    ce78:	e24bd004 	sub	sp, fp, #4, 0
    ce7c:	e8bd8800 	pop	{fp, pc}
    ce80:	0000f348 	.word	0x0000f348
    ce84:	0000f134 	.word	0x0000f134
    ce88:	0000f070 	.word	0x0000f070
    ce8c:	0000f0c8 	.word	0x0000f0c8
    ce90:	0000f100 	.word	0x0000f100

0000ce94 <printk>:
    ce94:	e92d000f 	push	{r0, r1, r2, r3}
    ce98:	e92d4800 	push	{fp, lr}
    ce9c:	e28db004 	add	fp, sp, #4, 0
    cea0:	e24dd008 	sub	sp, sp, #8, 0
    cea4:	e28b3008 	add	r3, fp, #8, 0
    cea8:	e50b300c 	str	r3, [fp, #-12]
    ceac:	e51b100c 	ldr	r1, [fp, #-12]
    ceb0:	e59b0004 	ldr	r0, [fp, #4]
    ceb4:	ebffff1b 	bl	cb28 <vprintk>
    ceb8:	e50b0008 	str	r0, [fp, #-8]
    cebc:	e51b3008 	ldr	r3, [fp, #-8]
    cec0:	e1a00003 	mov	r0, r3
    cec4:	e24bd004 	sub	sp, fp, #4, 0
    cec8:	e8bd4800 	pop	{fp, lr}
    cecc:	e28dd010 	add	sp, sp, #16, 0
    ced0:	e12fff1e 	bx	lr

0000ced4 <default_putchar>:
    ced4:	e92d4800 	push	{fp, lr}
    ced8:	e28db004 	add	fp, sp, #4, 0
    cedc:	e24dd008 	sub	sp, sp, #8, 0
    cee0:	e50b0008 	str	r0, [fp, #-8]
    cee4:	e51b3008 	ldr	r3, [fp, #-8]
    cee8:	e6ef3073 	uxtb	r3, r3
    ceec:	e1a00003 	mov	r0, r3
    cef0:	eb000312 	bl	db40 <uart_put8>
    cef4:	e51b3008 	ldr	r3, [fp, #-8]
    cef8:	e1a00003 	mov	r0, r3
    cefc:	e24bd004 	sub	sp, fp, #4, 0
    cf00:	e8bd8800 	pop	{fp, pc}

0000cf04 <rpi_putchar_set>:
    cf04:	e52db004 	push	{fp}		; (str fp, [sp, #-4]!)
    cf08:	e28db000 	add	fp, sp, #0, 0
    cf0c:	e24dd014 	sub	sp, sp, #20, 0
    cf10:	e50b0010 	str	r0, [fp, #-16]
    cf14:	e59f3024 	ldr	r3, [pc, #36]	; cf40 <rpi_putchar_set+0x3c>
    cf18:	e5933000 	ldr	r3, [r3]
    cf1c:	e50b3008 	str	r3, [fp, #-8]
    cf20:	e59f2018 	ldr	r2, [pc, #24]	; cf40 <rpi_putchar_set+0x3c>
    cf24:	e51b3010 	ldr	r3, [fp, #-16]
    cf28:	e5823000 	str	r3, [r2]
    cf2c:	e51b3008 	ldr	r3, [fp, #-8]
    cf30:	e1a00003 	mov	r0, r3
    cf34:	e28bd000 	add	sp, fp, #0, 0
    cf38:	e49db004 	pop	{fp}		; (ldr fp, [sp], #4)
    cf3c:	e12fff1e 	bx	lr
    cf40:	0000f348 	.word	0x0000f348

0000cf44 <strcpy>:
    cf44:	e92d0810 	push	{r4, fp}
    cf48:	e28db004 	add	fp, sp, #4, 0
    cf4c:	e24dd008 	sub	sp, sp, #8, 0
    cf50:	e50b0008 	str	r0, [fp, #-8]
    cf54:	e50b100c 	str	r1, [fp, #-12]
    cf58:	e51b4008 	ldr	r4, [fp, #-8]
    cf5c:	e320f000 	nop	{0}
    cf60:	e51b200c 	ldr	r2, [fp, #-12]
    cf64:	e2823001 	add	r3, r2, #1, 0
    cf68:	e50b300c 	str	r3, [fp, #-12]
    cf6c:	e1a03004 	mov	r3, r4
    cf70:	e2834001 	add	r4, r3, #1, 0
    cf74:	e5d22000 	ldrb	r2, [r2]
    cf78:	e5c32000 	strb	r2, [r3]
    cf7c:	e5d33000 	ldrb	r3, [r3]
    cf80:	e3530000 	cmp	r3, #0, 0
    cf84:	1afffff5 	bne	cf60 <strcpy+0x1c>
    cf88:	e51b3008 	ldr	r3, [fp, #-8]
    cf8c:	e1a00003 	mov	r0, r3
    cf90:	e24bd004 	sub	sp, fp, #4, 0
    cf94:	e8bd0810 	pop	{r4, fp}
    cf98:	e12fff1e 	bx	lr

0000cf9c <strlen>:
    cf9c:	e52db004 	push	{fp}		; (str fp, [sp, #-4]!)
    cfa0:	e28db000 	add	fp, sp, #0, 0
    cfa4:	e24dd014 	sub	sp, sp, #20, 0
    cfa8:	e50b0010 	str	r0, [fp, #-16]
    cfac:	e3a03000 	mov	r3, #0, 0
    cfb0:	e50b3008 	str	r3, [fp, #-8]
    cfb4:	ea000002 	b	cfc4 <strlen+0x28>
    cfb8:	e51b3008 	ldr	r3, [fp, #-8]
    cfbc:	e2833001 	add	r3, r3, #1, 0
    cfc0:	e50b3008 	str	r3, [fp, #-8]
    cfc4:	e51b2010 	ldr	r2, [fp, #-16]
    cfc8:	e51b3008 	ldr	r3, [fp, #-8]
    cfcc:	e0823003 	add	r3, r2, r3
    cfd0:	e5d33000 	ldrb	r3, [r3]
    cfd4:	e3530000 	cmp	r3, #0, 0
    cfd8:	1afffff6 	bne	cfb8 <strlen+0x1c>
    cfdc:	e51b3008 	ldr	r3, [fp, #-8]
    cfe0:	e1a00003 	mov	r0, r3
    cfe4:	e28bd000 	add	sp, fp, #0, 0
    cfe8:	e49db004 	pop	{fp}		; (ldr fp, [sp], #4)
    cfec:	e12fff1e 	bx	lr

0000cff0 <clean_reboot>:
    cff0:	e92d4800 	push	{fp, lr}
    cff4:	e28db004 	add	fp, sp, #4, 0
    cff8:	e59f0010 	ldr	r0, [pc, #16]	; d010 <clean_reboot+0x20>
    cffc:	eb000410 	bl	e044 <putk>
    d000:	eb000308 	bl	dc28 <uart_flush_tx>
    d004:	e3a0000a 	mov	r0, #10, 0
    d008:	eb0000ae 	bl	d2c8 <delay_ms>
    d00c:	eb00005f 	bl	d190 <rpi_reboot>
    d010:	0000f13c 	.word	0x0000f13c

0000d014 <_cstart>:
    d014:	e92d4800 	push	{fp, lr}
    d018:	e28db004 	add	fp, sp, #4, 0
    d01c:	e24dd010 	sub	sp, sp, #16, 0
    d020:	eb000016 	bl	d080 <custom_loader>
    d024:	e59f304c 	ldr	r3, [pc, #76]	; d078 <_cstart+0x64>
    d028:	e50b3008 	str	r3, [fp, #-8]
    d02c:	e59f3048 	ldr	r3, [pc, #72]	; d07c <_cstart+0x68>
    d030:	e50b300c 	str	r3, [fp, #-12]
    d034:	ea000004 	b	d04c <_cstart+0x38>
    d038:	e51b3008 	ldr	r3, [fp, #-8]
    d03c:	e2832004 	add	r2, r3, #4, 0
    d040:	e50b2008 	str	r2, [fp, #-8]
    d044:	e3a02000 	mov	r2, #0, 0
    d048:	e5832000 	str	r2, [r3]
    d04c:	e51b2008 	ldr	r2, [fp, #-8]
    d050:	e51b300c 	ldr	r3, [fp, #-12]
    d054:	e1520003 	cmp	r2, r3
    d058:	3afffff6 	bcc	d038 <_cstart+0x24>
    d05c:	eb00023a 	bl	d94c <uart_init>
    d060:	e3a03001 	mov	r3, #1, 0
    d064:	e50b3010 	str	r3, [fp, #-16]
    d068:	e51b3010 	ldr	r3, [fp, #-16]
    d06c:	ee0f3f1c 	mcr	15, 0, r3, cr15, cr12, {0}
    d070:	ebffec38 	bl	8158 <notmain>
    d074:	ebffffdd 	bl	cff0 <clean_reboot>
    d078:	0000f35c 	.word	0x0000f35c
    d07c:	0000f378 	.word	0x0000f378

0000d080 <custom_loader>:
    d080:	e52db004 	push	{fp}		; (str fp, [sp, #-4]!)
    d084:	e28db000 	add	fp, sp, #0, 0
    d088:	e320f000 	nop	{0}
    d08c:	e28bd000 	add	sp, fp, #0, 0
    d090:	e49db004 	pop	{fp}		; (ldr fp, [sp], #4)
    d094:	e12fff1e 	bx	lr

0000d098 <delay_cycles>:
    d098:	e52db004 	push	{fp}		; (str fp, [sp, #-4]!)
    d09c:	e28db000 	add	fp, sp, #0, 0
    d0a0:	e24dd00c 	sub	sp, sp, #12, 0
    d0a4:	e50b0008 	str	r0, [fp, #-8]
    d0a8:	ea000000 	b	d0b0 <delay_cycles+0x18>
    d0ac:	e2811000 	add	r1, r1, #0, 0
    d0b0:	e51b3008 	ldr	r3, [fp, #-8]
    d0b4:	e2432001 	sub	r2, r3, #1, 0
    d0b8:	e50b2008 	str	r2, [fp, #-8]
    d0bc:	e3530000 	cmp	r3, #0, 0
    d0c0:	1afffff9 	bne	d0ac <delay_cycles+0x14>
    d0c4:	e320f000 	nop	{0}
    d0c8:	e320f000 	nop	{0}
    d0cc:	e28bd000 	add	sp, fp, #0, 0
    d0d0:	e49db004 	pop	{fp}		; (ldr fp, [sp], #4)
    d0d4:	e12fff1e 	bx	lr

0000d0d8 <dev_barrier>:
    d0d8:	ea000002 	b	d0e8 <dsb>

0000d0dc <dmb>:
    d0dc:	e3a00000 	mov	r0, #0, 0
    d0e0:	ee070fba 	mcr	15, 0, r0, cr7, cr10, {5}
    d0e4:	e12fff1e 	bx	lr

0000d0e8 <dsb>:
    d0e8:	ee070f9a 	mcr	15, 0, r0, cr7, cr10, {4}
    d0ec:	e12fff1e 	bx	lr

0000d0f0 <at_user_level>:
    d0f0:	e52db004 	push	{fp}		; (str fp, [sp, #-4]!)
    d0f4:	e28db000 	add	fp, sp, #0, 0
    d0f8:	e24dd00c 	sub	sp, sp, #12, 0
    d0fc:	e3a03000 	mov	r3, #0, 0
    d100:	e50b3008 	str	r3, [fp, #-8]
    d104:	e10f3000 	mrs	r3, CPSR
    d108:	e50b3008 	str	r3, [fp, #-8]
    d10c:	e51b3008 	ldr	r3, [fp, #-8]
    d110:	e203201f 	and	r2, r3, #31, 0
    d114:	e59f3020 	ldr	r3, [pc, #32]	; d13c <at_user_level+0x4c>
    d118:	e5933000 	ldr	r3, [r3]
    d11c:	e1520003 	cmp	r2, r3
    d120:	03a03001 	moveq	r3, #1, 0
    d124:	13a03000 	movne	r3, #0, 0
    d128:	e6ef3073 	uxtb	r3, r3
    d12c:	e1a00003 	mov	r0, r3
    d130:	e28bd000 	add	sp, fp, #0, 0
    d134:	e49db004 	pop	{fp}		; (ldr fp, [sp], #4)
    d138:	e12fff1e 	bx	lr
    d13c:	0000f34c 	.word	0x0000f34c

0000d140 <set_user_level>:
    d140:	e52db004 	push	{fp}		; (str fp, [sp, #-4]!)
    d144:	e28db000 	add	fp, sp, #0, 0
    d148:	e24dd00c 	sub	sp, sp, #12, 0
    d14c:	e3a03000 	mov	r3, #0, 0
    d150:	e50b3008 	str	r3, [fp, #-8]
    d154:	e10f3000 	mrs	r3, CPSR
    d158:	e50b3008 	str	r3, [fp, #-8]
    d15c:	e51b3008 	ldr	r3, [fp, #-8]
    d160:	e3c3201f 	bic	r2, r3, #31, 0
    d164:	e59f3020 	ldr	r3, [pc, #32]	; d18c <set_user_level+0x4c>
    d168:	e5933000 	ldr	r3, [r3]
    d16c:	e1823003 	orr	r3, r2, r3
    d170:	e50b3008 	str	r3, [fp, #-8]
    d174:	e51b3008 	ldr	r3, [fp, #-8]
    d178:	e129f003 	msr	CPSR_fc, r3
    d17c:	e320f000 	nop	{0}
    d180:	e28bd000 	add	sp, fp, #0, 0
    d184:	e49db004 	pop	{fp}		; (ldr fp, [sp], #4)
    d188:	e12fff1e 	bx	lr
    d18c:	0000f34c 	.word	0x0000f34c

0000d190 <rpi_reboot>:
    d190:	e92d4800 	push	{fp, lr}
    d194:	e28db004 	add	fp, sp, #4, 0
    d198:	e24dd010 	sub	sp, sp, #16, 0
    d19c:	ebffffd3 	bl	d0f0 <at_user_level>
    d1a0:	e1a03000 	mov	r3, r0
    d1a4:	e3530000 	cmp	r3, #0, 0
    d1a8:	0a000000 	beq	d1b0 <rpi_reboot+0x20>
    d1ac:	ebffffe3 	bl	d140 <set_user_level>
    d1b0:	eb0003ba 	bl	e0a0 <reboot_callout>
    d1b4:	eb00029b 	bl	dc28 <uart_flush_tx>
    d1b8:	e3a0000a 	mov	r0, #10, 0
    d1bc:	eb000041 	bl	d2c8 <delay_ms>
    d1c0:	e59f304c 	ldr	r3, [pc, #76]	; d214 <rpi_reboot+0x84>
    d1c4:	e50b3008 	str	r3, [fp, #-8]
    d1c8:	e59f3048 	ldr	r3, [pc, #72]	; d218 <rpi_reboot+0x88>
    d1cc:	e50b300c 	str	r3, [fp, #-12]
    d1d0:	e3a0345a 	mov	r3, #1509949440	; 0x5a000000
    d1d4:	e50b3010 	str	r3, [fp, #-16]
    d1d8:	e3a03020 	mov	r3, #32, 0
    d1dc:	e50b3014 	str	r3, [fp, #-20]	; 0xffffffec
    d1e0:	e51b200c 	ldr	r2, [fp, #-12]
    d1e4:	e51b3010 	ldr	r3, [fp, #-16]
    d1e8:	e3833001 	orr	r3, r3, #1, 0
    d1ec:	e1a01003 	mov	r1, r3
    d1f0:	e1a00002 	mov	r0, r2
    d1f4:	ebffeb8a 	bl	8024 <PUT32>
    d1f8:	e51b0008 	ldr	r0, [fp, #-8]
    d1fc:	e51b2010 	ldr	r2, [fp, #-16]
    d200:	e51b3014 	ldr	r3, [fp, #-20]	; 0xffffffec
    d204:	e1823003 	orr	r3, r2, r3
    d208:	e1a01003 	mov	r1, r3
    d20c:	ebffeb84 	bl	8024 <PUT32>
    d210:	eafffffe 	b	d210 <rpi_reboot+0x80>
    d214:	2010001c 	.word	0x2010001c
    d218:	20100024 	.word	0x20100024

0000d21c <rpi_wait>:
    d21c:	e52db004 	push	{fp}		; (str fp, [sp, #-4]!)
    d220:	e28db000 	add	fp, sp, #0, 0
    d224:	e320f000 	nop	{0}
    d228:	e28bd000 	add	sp, fp, #0, 0
    d22c:	e49db004 	pop	{fp}		; (ldr fp, [sp], #4)
    d230:	e12fff1e 	bx	lr

0000d234 <timer_get_usec_raw>:
    d234:	e92d4800 	push	{fp, lr}
    d238:	e28db004 	add	fp, sp, #4, 0
    d23c:	e59f000c 	ldr	r0, [pc, #12]	; d250 <timer_get_usec_raw+0x1c>
    d240:	ebffeb79 	bl	802c <GET32>
    d244:	e1a03000 	mov	r3, r0
    d248:	e1a00003 	mov	r0, r3
    d24c:	e8bd8800 	pop	{fp, pc}
    d250:	20003004 	.word	0x20003004

0000d254 <timer_get_usec>:
    d254:	e92d4800 	push	{fp, lr}
    d258:	e28db004 	add	fp, sp, #4, 0
    d25c:	e24dd008 	sub	sp, sp, #8, 0
    d260:	ebffff9c 	bl	d0d8 <dev_barrier>
    d264:	ebfffff2 	bl	d234 <timer_get_usec_raw>
    d268:	e50b0008 	str	r0, [fp, #-8]
    d26c:	ebffff99 	bl	d0d8 <dev_barrier>
    d270:	e51b3008 	ldr	r3, [fp, #-8]
    d274:	e1a00003 	mov	r0, r3
    d278:	e24bd004 	sub	sp, fp, #4, 0
    d27c:	e8bd8800 	pop	{fp, pc}

0000d280 <delay_us>:
    d280:	e92d4800 	push	{fp, lr}
    d284:	e28db004 	add	fp, sp, #4, 0
    d288:	e24dd010 	sub	sp, sp, #16, 0
    d28c:	e50b0010 	str	r0, [fp, #-16]
    d290:	ebffffef 	bl	d254 <timer_get_usec>
    d294:	e50b0008 	str	r0, [fp, #-8]
    d298:	ebffffed 	bl	d254 <timer_get_usec>
    d29c:	e50b000c 	str	r0, [fp, #-12]
    d2a0:	e51b200c 	ldr	r2, [fp, #-12]
    d2a4:	e51b3008 	ldr	r3, [fp, #-8]
    d2a8:	e0423003 	sub	r3, r2, r3
    d2ac:	e51b2010 	ldr	r2, [fp, #-16]
    d2b0:	e1520003 	cmp	r2, r3
    d2b4:	9a000000 	bls	d2bc <delay_us+0x3c>
    d2b8:	eafffff6 	b	d298 <delay_us+0x18>
    d2bc:	e320f000 	nop	{0}
    d2c0:	e24bd004 	sub	sp, fp, #4, 0
    d2c4:	e8bd8800 	pop	{fp, pc}

0000d2c8 <delay_ms>:
    d2c8:	e92d4800 	push	{fp, lr}
    d2cc:	e28db004 	add	fp, sp, #4, 0
    d2d0:	e24dd008 	sub	sp, sp, #8, 0
    d2d4:	e50b0008 	str	r0, [fp, #-8]
    d2d8:	e51b2008 	ldr	r2, [fp, #-8]
    d2dc:	e1a03002 	mov	r3, r2
    d2e0:	e1a03283 	lsl	r3, r3, #5
    d2e4:	e0433002 	sub	r3, r3, r2
    d2e8:	e1a03103 	lsl	r3, r3, #2
    d2ec:	e0833002 	add	r3, r3, r2
    d2f0:	e1a03183 	lsl	r3, r3, #3
    d2f4:	e1a00003 	mov	r0, r3
    d2f8:	ebffffe0 	bl	d280 <delay_us>
    d2fc:	e320f000 	nop	{0}
    d300:	e24bd004 	sub	sp, fp, #4, 0
    d304:	e8bd8800 	pop	{fp, pc}

0000d308 <delay_sec>:
    d308:	e92d4800 	push	{fp, lr}
    d30c:	e28db004 	add	fp, sp, #4, 0
    d310:	e24dd008 	sub	sp, sp, #8, 0
    d314:	e50b0008 	str	r0, [fp, #-8]
    d318:	e51b2008 	ldr	r2, [fp, #-8]
    d31c:	e1a03002 	mov	r3, r2
    d320:	e1a03283 	lsl	r3, r3, #5
    d324:	e0433002 	sub	r3, r3, r2
    d328:	e1a03103 	lsl	r3, r3, #2
    d32c:	e0833002 	add	r3, r3, r2
    d330:	e1a03183 	lsl	r3, r3, #3
    d334:	e1a00003 	mov	r0, r3
    d338:	ebffffe2 	bl	d2c8 <delay_ms>
    d33c:	e320f000 	nop	{0}
    d340:	e24bd004 	sub	sp, fp, #4, 0
    d344:	e8bd8800 	pop	{fp, pc}

0000d348 <DEV_VAL32>:
    d348:	e52db004 	push	{fp}		; (str fp, [sp, #-4]!)
    d34c:	e28db000 	add	fp, sp, #0, 0
    d350:	e24dd00c 	sub	sp, sp, #12, 0
    d354:	e50b0008 	str	r0, [fp, #-8]
    d358:	e51b3008 	ldr	r3, [fp, #-8]
    d35c:	e1a00003 	mov	r0, r3
    d360:	e28bd000 	add	sp, fp, #0, 0
    d364:	e49db004 	pop	{fp}		; (ldr fp, [sp], #4)
    d368:	e12fff1e 	bx	lr

0000d36c <gpio_set_output>:
    d36c:	e92d4800 	push	{fp, lr}
    d370:	e28db004 	add	fp, sp, #4, 0
    d374:	e24dd018 	sub	sp, sp, #24, 0
    d378:	e50b0018 	str	r0, [fp, #-24]	; 0xffffffe8
    d37c:	e51b3018 	ldr	r3, [fp, #-24]	; 0xffffffe8
    d380:	e353001f 	cmp	r3, #31, 0
    d384:	8a000034 	bhi	d45c <gpio_set_output+0xf0>
    d388:	e51b3018 	ldr	r3, [fp, #-24]	; 0xffffffe8
    d38c:	e59f20d4 	ldr	r2, [pc, #212]	; d468 <gpio_set_output+0xfc>
    d390:	e0832392 	umull	r2, r3, r2, r3
    d394:	e1a031a3 	lsr	r3, r3, #3
    d398:	e2833302 	add	r3, r3, #134217728	; 0x8000000
    d39c:	e2833702 	add	r3, r3, #524288	; 0x80000
    d3a0:	e1a03103 	lsl	r3, r3, #2
    d3a4:	e50b3008 	str	r3, [fp, #-8]
    d3a8:	e51b0008 	ldr	r0, [fp, #-8]
    d3ac:	ebffeb1e 	bl	802c <GET32>
    d3b0:	e50b000c 	str	r0, [fp, #-12]
    d3b4:	e51b1018 	ldr	r1, [fp, #-24]	; 0xffffffe8
    d3b8:	e59f30a8 	ldr	r3, [pc, #168]	; d468 <gpio_set_output+0xfc>
    d3bc:	e0832193 	umull	r2, r3, r3, r1
    d3c0:	e1a021a3 	lsr	r2, r3, #3
    d3c4:	e1a03002 	mov	r3, r2
    d3c8:	e1a03103 	lsl	r3, r3, #2
    d3cc:	e0833002 	add	r3, r3, r2
    d3d0:	e1a03083 	lsl	r3, r3, #1
    d3d4:	e0412003 	sub	r2, r1, r3
    d3d8:	e1a03002 	mov	r3, r2
    d3dc:	e1a03083 	lsl	r3, r3, #1
    d3e0:	e0833002 	add	r3, r3, r2
    d3e4:	e3a02007 	mov	r2, #7, 0
    d3e8:	e1a03312 	lsl	r3, r2, r3
    d3ec:	e50b3010 	str	r3, [fp, #-16]
    d3f0:	e51b3010 	ldr	r3, [fp, #-16]
    d3f4:	e1e03003 	mvn	r3, r3
    d3f8:	e51b200c 	ldr	r2, [fp, #-12]
    d3fc:	e0033002 	and	r3, r3, r2
    d400:	e50b300c 	str	r3, [fp, #-12]
    d404:	e51b1018 	ldr	r1, [fp, #-24]	; 0xffffffe8
    d408:	e59f3058 	ldr	r3, [pc, #88]	; d468 <gpio_set_output+0xfc>
    d40c:	e0832193 	umull	r2, r3, r3, r1
    d410:	e1a021a3 	lsr	r2, r3, #3
    d414:	e1a03002 	mov	r3, r2
    d418:	e1a03103 	lsl	r3, r3, #2
    d41c:	e0833002 	add	r3, r3, r2
    d420:	e1a03083 	lsl	r3, r3, #1
    d424:	e0412003 	sub	r2, r1, r3
    d428:	e1a03002 	mov	r3, r2
    d42c:	e1a03083 	lsl	r3, r3, #1
    d430:	e0833002 	add	r3, r3, r2
    d434:	e3a02001 	mov	r2, #1, 0
    d438:	e1a03312 	lsl	r3, r2, r3
    d43c:	e1a02003 	mov	r2, r3
    d440:	e51b300c 	ldr	r3, [fp, #-12]
    d444:	e1833002 	orr	r3, r3, r2
    d448:	e50b300c 	str	r3, [fp, #-12]
    d44c:	e51b100c 	ldr	r1, [fp, #-12]
    d450:	e51b0008 	ldr	r0, [fp, #-8]
    d454:	ebffeaf2 	bl	8024 <PUT32>
    d458:	ea000000 	b	d460 <gpio_set_output+0xf4>
    d45c:	e320f000 	nop	{0}
    d460:	e24bd004 	sub	sp, fp, #4, 0
    d464:	e8bd8800 	pop	{fp, pc}
    d468:	cccccccd 	.word	0xcccccccd

0000d46c <gpio_set_on>:
    d46c:	e92d4800 	push	{fp, lr}
    d470:	e28db004 	add	fp, sp, #4, 0
    d474:	e24dd008 	sub	sp, sp, #8, 0
    d478:	e50b0008 	str	r0, [fp, #-8]
    d47c:	e51b3008 	ldr	r3, [fp, #-8]
    d480:	e353001f 	cmp	r3, #31, 0
    d484:	8a00000c 	bhi	d4bc <gpio_set_on+0x50>
    d488:	e51b3008 	ldr	r3, [fp, #-8]
    d48c:	e1a022a3 	lsr	r2, r3, #5
    d490:	e59f3030 	ldr	r3, [pc, #48]	; d4c8 <gpio_set_on+0x5c>
    d494:	e0823003 	add	r3, r2, r3
    d498:	e1a02103 	lsl	r2, r3, #2
    d49c:	e51b3008 	ldr	r3, [fp, #-8]
    d4a0:	e203301f 	and	r3, r3, #31, 0
    d4a4:	e3a01001 	mov	r1, #1, 0
    d4a8:	e1a03311 	lsl	r3, r1, r3
    d4ac:	e1a01003 	mov	r1, r3
    d4b0:	e1a00002 	mov	r0, r2
    d4b4:	ebffeada 	bl	8024 <PUT32>
    d4b8:	ea000000 	b	d4c0 <gpio_set_on+0x54>
    d4bc:	e320f000 	nop	{0}
    d4c0:	e24bd004 	sub	sp, fp, #4, 0
    d4c4:	e8bd8800 	pop	{fp, pc}
    d4c8:	08080007 	.word	0x08080007

0000d4cc <gpio_set_off>:
    d4cc:	e92d4800 	push	{fp, lr}
    d4d0:	e28db004 	add	fp, sp, #4, 0
    d4d4:	e24dd008 	sub	sp, sp, #8, 0
    d4d8:	e50b0008 	str	r0, [fp, #-8]
    d4dc:	e51b3008 	ldr	r3, [fp, #-8]
    d4e0:	e353001f 	cmp	r3, #31, 0
    d4e4:	8a00000c 	bhi	d51c <gpio_set_off+0x50>
    d4e8:	e51b3008 	ldr	r3, [fp, #-8]
    d4ec:	e1a022a3 	lsr	r2, r3, #5
    d4f0:	e59f3030 	ldr	r3, [pc, #48]	; d528 <gpio_set_off+0x5c>
    d4f4:	e0823003 	add	r3, r2, r3
    d4f8:	e1a02103 	lsl	r2, r3, #2
    d4fc:	e51b3008 	ldr	r3, [fp, #-8]
    d500:	e203301f 	and	r3, r3, #31, 0
    d504:	e3a01001 	mov	r1, #1, 0
    d508:	e1a03311 	lsl	r3, r1, r3
    d50c:	e1a01003 	mov	r1, r3
    d510:	e1a00002 	mov	r0, r2
    d514:	ebffeac2 	bl	8024 <PUT32>
    d518:	ea000000 	b	d520 <gpio_set_off+0x54>
    d51c:	e320f000 	nop	{0}
    d520:	e24bd004 	sub	sp, fp, #4, 0
    d524:	e8bd8800 	pop	{fp, pc}
    d528:	0808000a 	.word	0x0808000a

0000d52c <gpio_write>:
    d52c:	e92d4800 	push	{fp, lr}
    d530:	e28db004 	add	fp, sp, #4, 0
    d534:	e24dd008 	sub	sp, sp, #8, 0
    d538:	e50b0008 	str	r0, [fp, #-8]
    d53c:	e50b100c 	str	r1, [fp, #-12]
    d540:	e51b300c 	ldr	r3, [fp, #-12]
    d544:	e3530000 	cmp	r3, #0, 0
    d548:	0a000002 	beq	d558 <gpio_write+0x2c>
    d54c:	e51b0008 	ldr	r0, [fp, #-8]
    d550:	ebffffc5 	bl	d46c <gpio_set_on>
    d554:	ea000001 	b	d560 <gpio_write+0x34>
    d558:	e51b0008 	ldr	r0, [fp, #-8]
    d55c:	ebffffda 	bl	d4cc <gpio_set_off>
    d560:	e320f000 	nop	{0}
    d564:	e24bd004 	sub	sp, fp, #4, 0
    d568:	e8bd8800 	pop	{fp, pc}

0000d56c <gpio_set_input>:
    d56c:	e92d4800 	push	{fp, lr}
    d570:	e28db004 	add	fp, sp, #4, 0
    d574:	e24dd018 	sub	sp, sp, #24, 0
    d578:	e50b0018 	str	r0, [fp, #-24]	; 0xffffffe8
    d57c:	e51b3018 	ldr	r3, [fp, #-24]	; 0xffffffe8
    d580:	e353001f 	cmp	r3, #31, 0
    d584:	8a000022 	bhi	d614 <gpio_set_input+0xa8>
    d588:	e51b3018 	ldr	r3, [fp, #-24]	; 0xffffffe8
    d58c:	e59f208c 	ldr	r2, [pc, #140]	; d620 <gpio_set_input+0xb4>
    d590:	e0832392 	umull	r2, r3, r2, r3
    d594:	e1a031a3 	lsr	r3, r3, #3
    d598:	e2833302 	add	r3, r3, #134217728	; 0x8000000
    d59c:	e2833702 	add	r3, r3, #524288	; 0x80000
    d5a0:	e1a03103 	lsl	r3, r3, #2
    d5a4:	e50b3008 	str	r3, [fp, #-8]
    d5a8:	e51b0008 	ldr	r0, [fp, #-8]
    d5ac:	ebffea9e 	bl	802c <GET32>
    d5b0:	e50b000c 	str	r0, [fp, #-12]
    d5b4:	e51b1018 	ldr	r1, [fp, #-24]	; 0xffffffe8
    d5b8:	e59f3060 	ldr	r3, [pc, #96]	; d620 <gpio_set_input+0xb4>
    d5bc:	e0832193 	umull	r2, r3, r3, r1
    d5c0:	e1a021a3 	lsr	r2, r3, #3
    d5c4:	e1a03002 	mov	r3, r2
    d5c8:	e1a03103 	lsl	r3, r3, #2
    d5cc:	e0833002 	add	r3, r3, r2
    d5d0:	e1a03083 	lsl	r3, r3, #1
    d5d4:	e0412003 	sub	r2, r1, r3
    d5d8:	e1a03002 	mov	r3, r2
    d5dc:	e1a03083 	lsl	r3, r3, #1
    d5e0:	e0833002 	add	r3, r3, r2
    d5e4:	e3a02007 	mov	r2, #7, 0
    d5e8:	e1a03312 	lsl	r3, r2, r3
    d5ec:	e50b3010 	str	r3, [fp, #-16]
    d5f0:	e51b3010 	ldr	r3, [fp, #-16]
    d5f4:	e1e03003 	mvn	r3, r3
    d5f8:	e51b200c 	ldr	r2, [fp, #-12]
    d5fc:	e0033002 	and	r3, r3, r2
    d600:	e50b300c 	str	r3, [fp, #-12]
    d604:	e51b100c 	ldr	r1, [fp, #-12]
    d608:	e51b0008 	ldr	r0, [fp, #-8]
    d60c:	ebffea84 	bl	8024 <PUT32>
    d610:	ea000000 	b	d618 <gpio_set_input+0xac>
    d614:	e320f000 	nop	{0}
    d618:	e24bd004 	sub	sp, fp, #4, 0
    d61c:	e8bd8800 	pop	{fp, pc}
    d620:	cccccccd 	.word	0xcccccccd

0000d624 <gpio_read>:
    d624:	e92d4800 	push	{fp, lr}
    d628:	e28db004 	add	fp, sp, #4, 0
    d62c:	e24dd010 	sub	sp, sp, #16, 0
    d630:	e50b0010 	str	r0, [fp, #-16]
    d634:	e51b3010 	ldr	r3, [fp, #-16]
    d638:	e353001f 	cmp	r3, #31, 0
    d63c:	9a000006 	bls	d65c <gpio_read+0x38>
    d640:	e51b3010 	ldr	r3, [fp, #-16]
    d644:	e353002f 	cmp	r3, #47, 0	; 0x2f
    d648:	0a000003 	beq	d65c <gpio_read+0x38>
    d64c:	e3e00000 	mvn	r0, #0, 0
    d650:	ebffff3c 	bl	d348 <DEV_VAL32>
    d654:	e1a03000 	mov	r3, r0
    d658:	ea000017 	b	d6bc <gpio_read+0x98>
    d65c:	e3a03000 	mov	r3, #0, 0
    d660:	e50b3008 	str	r3, [fp, #-8]
    d664:	e51b3010 	ldr	r3, [fp, #-16]
    d668:	e1a022a3 	lsr	r2, r3, #5
    d66c:	e59f3054 	ldr	r3, [pc, #84]	; d6c8 <gpio_read+0xa4>
    d670:	e0823003 	add	r3, r2, r3
    d674:	e1a03103 	lsl	r3, r3, #2
    d678:	e1a00003 	mov	r0, r3
    d67c:	ebffea6a 	bl	802c <GET32>
    d680:	e50b0008 	str	r0, [fp, #-8]
    d684:	e3a02001 	mov	r2, #1, 0
    d688:	e51b3010 	ldr	r3, [fp, #-16]
    d68c:	e1a03312 	lsl	r3, r2, r3
    d690:	e50b300c 	str	r3, [fp, #-12]
    d694:	e51b2008 	ldr	r2, [fp, #-8]
    d698:	e51b300c 	ldr	r3, [fp, #-12]
    d69c:	e0033002 	and	r3, r3, r2
    d6a0:	e50b3008 	str	r3, [fp, #-8]
    d6a4:	e51b2008 	ldr	r2, [fp, #-8]
    d6a8:	e51b3010 	ldr	r3, [fp, #-16]
    d6ac:	e1a03332 	lsr	r3, r2, r3
    d6b0:	e1a00003 	mov	r0, r3
    d6b4:	ebffff23 	bl	d348 <DEV_VAL32>
    d6b8:	e1a03000 	mov	r3, r0
    d6bc:	e1a00003 	mov	r0, r3
    d6c0:	e24bd004 	sub	sp, fp, #4, 0
    d6c4:	e8bd8800 	pop	{fp, pc}
    d6c8:	0808000d 	.word	0x0808000d

0000d6cc <gpio_set_pullup>:
    d6cc:	e92d4800 	push	{fp, lr}
    d6d0:	e28db004 	add	fp, sp, #4, 0
    d6d4:	e24dd008 	sub	sp, sp, #8, 0
    d6d8:	e50b0008 	str	r0, [fp, #-8]
    d6dc:	e51b3008 	ldr	r3, [fp, #-8]
    d6e0:	e353001f 	cmp	r3, #31, 0
    d6e4:	8a000010 	bhi	d72c <gpio_set_pullup+0x60>
    d6e8:	e3a01002 	mov	r1, #2, 0
    d6ec:	e59f0044 	ldr	r0, [pc, #68]	; d738 <gpio_set_pullup+0x6c>
    d6f0:	ebffea4b 	bl	8024 <PUT32>
    d6f4:	e59f0040 	ldr	r0, [pc, #64]	; d73c <gpio_set_pullup+0x70>
    d6f8:	ebfffe66 	bl	d098 <delay_cycles>
    d6fc:	e3a02001 	mov	r2, #1, 0
    d700:	e51b3008 	ldr	r3, [fp, #-8]
    d704:	e1a03312 	lsl	r3, r2, r3
    d708:	e1a01003 	mov	r1, r3
    d70c:	e59f002c 	ldr	r0, [pc, #44]	; d740 <gpio_set_pullup+0x74>
    d710:	ebffea43 	bl	8024 <PUT32>
    d714:	e59f0020 	ldr	r0, [pc, #32]	; d73c <gpio_set_pullup+0x70>
    d718:	ebfffe5e 	bl	d098 <delay_cycles>
    d71c:	e3a01000 	mov	r1, #0, 0
    d720:	e59f0018 	ldr	r0, [pc, #24]	; d740 <gpio_set_pullup+0x74>
    d724:	ebffea3e 	bl	8024 <PUT32>
    d728:	ea000000 	b	d730 <gpio_set_pullup+0x64>
    d72c:	e320f000 	nop	{0}
    d730:	e24bd004 	sub	sp, fp, #4, 0
    d734:	e8bd8800 	pop	{fp, pc}
    d738:	20200094 	.word	0x20200094
    d73c:	000001c2 	.word	0x000001c2
    d740:	20200098 	.word	0x20200098

0000d744 <gpio_set_pulldown>:
    d744:	e92d4800 	push	{fp, lr}
    d748:	e28db004 	add	fp, sp, #4, 0
    d74c:	e24dd008 	sub	sp, sp, #8, 0
    d750:	e50b0008 	str	r0, [fp, #-8]
    d754:	e51b3008 	ldr	r3, [fp, #-8]
    d758:	e353001f 	cmp	r3, #31, 0
    d75c:	8a000010 	bhi	d7a4 <gpio_set_pulldown+0x60>
    d760:	e3a01001 	mov	r1, #1, 0
    d764:	e59f0044 	ldr	r0, [pc, #68]	; d7b0 <gpio_set_pulldown+0x6c>
    d768:	ebffea2d 	bl	8024 <PUT32>
    d76c:	e59f0040 	ldr	r0, [pc, #64]	; d7b4 <gpio_set_pulldown+0x70>
    d770:	ebfffe48 	bl	d098 <delay_cycles>
    d774:	e3a02001 	mov	r2, #1, 0
    d778:	e51b3008 	ldr	r3, [fp, #-8]
    d77c:	e1a03312 	lsl	r3, r2, r3
    d780:	e1a01003 	mov	r1, r3
    d784:	e59f002c 	ldr	r0, [pc, #44]	; d7b8 <gpio_set_pulldown+0x74>
    d788:	ebffea25 	bl	8024 <PUT32>
    d78c:	e59f0020 	ldr	r0, [pc, #32]	; d7b4 <gpio_set_pulldown+0x70>
    d790:	ebfffe40 	bl	d098 <delay_cycles>
    d794:	e3a01000 	mov	r1, #0, 0
    d798:	e59f0018 	ldr	r0, [pc, #24]	; d7b8 <gpio_set_pulldown+0x74>
    d79c:	ebffea20 	bl	8024 <PUT32>
    d7a0:	ea000000 	b	d7a8 <gpio_set_pulldown+0x64>
    d7a4:	e320f000 	nop	{0}
    d7a8:	e24bd004 	sub	sp, fp, #4, 0
    d7ac:	e8bd8800 	pop	{fp, pc}
    d7b0:	20200094 	.word	0x20200094
    d7b4:	000001c2 	.word	0x000001c2
    d7b8:	20200098 	.word	0x20200098

0000d7bc <gpio_pud_off>:
    d7bc:	e92d4800 	push	{fp, lr}
    d7c0:	e28db004 	add	fp, sp, #4, 0
    d7c4:	e24dd008 	sub	sp, sp, #8, 0
    d7c8:	e50b0008 	str	r0, [fp, #-8]
    d7cc:	e3a01000 	mov	r1, #0, 0
    d7d0:	e59f0040 	ldr	r0, [pc, #64]	; d818 <gpio_pud_off+0x5c>
    d7d4:	ebffea12 	bl	8024 <PUT32>
    d7d8:	e59f003c 	ldr	r0, [pc, #60]	; d81c <gpio_pud_off+0x60>
    d7dc:	ebfffe2d 	bl	d098 <delay_cycles>
    d7e0:	e3a02001 	mov	r2, #1, 0
    d7e4:	e51b3008 	ldr	r3, [fp, #-8]
    d7e8:	e1a03312 	lsl	r3, r2, r3
    d7ec:	e1a01003 	mov	r1, r3
    d7f0:	e59f0028 	ldr	r0, [pc, #40]	; d820 <gpio_pud_off+0x64>
    d7f4:	ebffea0a 	bl	8024 <PUT32>
    d7f8:	e59f001c 	ldr	r0, [pc, #28]	; d81c <gpio_pud_off+0x60>
    d7fc:	ebfffe25 	bl	d098 <delay_cycles>
    d800:	e3a01000 	mov	r1, #0, 0
    d804:	e59f0014 	ldr	r0, [pc, #20]	; d820 <gpio_pud_off+0x64>
    d808:	ebffea05 	bl	8024 <PUT32>
    d80c:	e320f000 	nop	{0}
    d810:	e24bd004 	sub	sp, fp, #4, 0
    d814:	e8bd8800 	pop	{fp, pc}
    d818:	20200094 	.word	0x20200094
    d81c:	000001c2 	.word	0x000001c2
    d820:	20200098 	.word	0x20200098

0000d824 <gpio_set_function>:
    d824:	e92d4800 	push	{fp, lr}
    d828:	e28db004 	add	fp, sp, #4, 0
    d82c:	e24dd018 	sub	sp, sp, #24, 0
    d830:	e50b0018 	str	r0, [fp, #-24]	; 0xffffffe8
    d834:	e1a03001 	mov	r3, r1
    d838:	e54b3019 	strb	r3, [fp, #-25]	; 0xffffffe7
    d83c:	e51b3018 	ldr	r3, [fp, #-24]	; 0xffffffe8
    d840:	e353001f 	cmp	r3, #31, 0
    d844:	9a000002 	bls	d854 <gpio_set_function+0x30>
    d848:	e51b3018 	ldr	r3, [fp, #-24]	; 0xffffffe8
    d84c:	e353002f 	cmp	r3, #47, 0	; 0x2f
    d850:	1a000037 	bne	d934 <gpio_set_function+0x110>
    d854:	e55b3019 	ldrb	r3, [fp, #-25]	; 0xffffffe7
    d858:	e3530007 	cmp	r3, #7, 0
    d85c:	8a000036 	bhi	d93c <gpio_set_function+0x118>
    d860:	e51b3018 	ldr	r3, [fp, #-24]	; 0xffffffe8
    d864:	e59f20dc 	ldr	r2, [pc, #220]	; d948 <gpio_set_function+0x124>
    d868:	e0832392 	umull	r2, r3, r2, r3
    d86c:	e1a031a3 	lsr	r3, r3, #3
    d870:	e2833302 	add	r3, r3, #134217728	; 0x8000000
    d874:	e2833702 	add	r3, r3, #524288	; 0x80000
    d878:	e1a03103 	lsl	r3, r3, #2
    d87c:	e50b3008 	str	r3, [fp, #-8]
    d880:	e51b0008 	ldr	r0, [fp, #-8]
    d884:	ebffe9e8 	bl	802c <GET32>
    d888:	e50b000c 	str	r0, [fp, #-12]
    d88c:	e51b1018 	ldr	r1, [fp, #-24]	; 0xffffffe8
    d890:	e59f30b0 	ldr	r3, [pc, #176]	; d948 <gpio_set_function+0x124>
    d894:	e0832193 	umull	r2, r3, r3, r1
    d898:	e1a021a3 	lsr	r2, r3, #3
    d89c:	e1a03002 	mov	r3, r2
    d8a0:	e1a03103 	lsl	r3, r3, #2
    d8a4:	e0833002 	add	r3, r3, r2
    d8a8:	e1a03083 	lsl	r3, r3, #1
    d8ac:	e0412003 	sub	r2, r1, r3
    d8b0:	e1a03002 	mov	r3, r2
    d8b4:	e1a03083 	lsl	r3, r3, #1
    d8b8:	e0833002 	add	r3, r3, r2
    d8bc:	e3a02007 	mov	r2, #7, 0
    d8c0:	e1a03312 	lsl	r3, r2, r3
    d8c4:	e50b3010 	str	r3, [fp, #-16]
    d8c8:	e51b3010 	ldr	r3, [fp, #-16]
    d8cc:	e1e03003 	mvn	r3, r3
    d8d0:	e51b200c 	ldr	r2, [fp, #-12]
    d8d4:	e0033002 	and	r3, r3, r2
    d8d8:	e50b300c 	str	r3, [fp, #-12]
    d8dc:	e55b0019 	ldrb	r0, [fp, #-25]	; 0xffffffe7
    d8e0:	e51b1018 	ldr	r1, [fp, #-24]	; 0xffffffe8
    d8e4:	e59f305c 	ldr	r3, [pc, #92]	; d948 <gpio_set_function+0x124>
    d8e8:	e0832193 	umull	r2, r3, r3, r1
    d8ec:	e1a021a3 	lsr	r2, r3, #3
    d8f0:	e1a03002 	mov	r3, r2
    d8f4:	e1a03103 	lsl	r3, r3, #2
    d8f8:	e0833002 	add	r3, r3, r2
    d8fc:	e1a03083 	lsl	r3, r3, #1
    d900:	e0412003 	sub	r2, r1, r3
    d904:	e1a03002 	mov	r3, r2
    d908:	e1a03083 	lsl	r3, r3, #1
    d90c:	e0833002 	add	r3, r3, r2
    d910:	e1a03310 	lsl	r3, r0, r3
    d914:	e1a02003 	mov	r2, r3
    d918:	e51b300c 	ldr	r3, [fp, #-12]
    d91c:	e1833002 	orr	r3, r3, r2
    d920:	e50b300c 	str	r3, [fp, #-12]
    d924:	e51b100c 	ldr	r1, [fp, #-12]
    d928:	e51b0008 	ldr	r0, [fp, #-8]
    d92c:	ebffe9bc 	bl	8024 <PUT32>
    d930:	ea000002 	b	d940 <gpio_set_function+0x11c>
    d934:	e320f000 	nop	{0}
    d938:	ea000000 	b	d940 <gpio_set_function+0x11c>
    d93c:	e320f000 	nop	{0}
    d940:	e24bd004 	sub	sp, fp, #4, 0
    d944:	e8bd8800 	pop	{fp, pc}
    d948:	cccccccd 	.word	0xcccccccd

0000d94c <uart_init>:
    d94c:	e92d4800 	push	{fp, lr}
    d950:	e28db004 	add	fp, sp, #4, 0
    d954:	e24dd008 	sub	sp, sp, #8, 0
    d958:	ebfffdde 	bl	d0d8 <dev_barrier>
    d95c:	e3a01002 	mov	r1, #2, 0
    d960:	e3a0000e 	mov	r0, #14, 0
    d964:	ebffffae 	bl	d824 <gpio_set_function>
    d968:	e3a01002 	mov	r1, #2, 0
    d96c:	e3a0000f 	mov	r0, #15, 0
    d970:	ebffffab 	bl	d824 <gpio_set_function>
    d974:	ebfffdd7 	bl	d0d8 <dev_barrier>
    d978:	e59f007c 	ldr	r0, [pc, #124]	; d9fc <uart_init+0xb0>
    d97c:	ebffe9aa 	bl	802c <GET32>
    d980:	e50b0008 	str	r0, [fp, #-8]
    d984:	e51b3008 	ldr	r3, [fp, #-8]
    d988:	e3833001 	orr	r3, r3, #1, 0
    d98c:	e50b3008 	str	r3, [fp, #-8]
    d990:	e51b1008 	ldr	r1, [fp, #-8]
    d994:	e59f0060 	ldr	r0, [pc, #96]	; d9fc <uart_init+0xb0>
    d998:	ebffe9a1 	bl	8024 <PUT32>
    d99c:	ebfffdcd 	bl	d0d8 <dev_barrier>
    d9a0:	e3a01000 	mov	r1, #0, 0
    d9a4:	e59f0054 	ldr	r0, [pc, #84]	; da00 <uart_init+0xb4>
    d9a8:	ebffe99d 	bl	8024 <PUT32>
    d9ac:	e3a01006 	mov	r1, #6, 0
    d9b0:	e59f004c 	ldr	r0, [pc, #76]	; da04 <uart_init+0xb8>
    d9b4:	ebffe99a 	bl	8024 <PUT32>
    d9b8:	e3a01003 	mov	r1, #3, 0
    d9bc:	e59f0044 	ldr	r0, [pc, #68]	; da08 <uart_init+0xbc>
    d9c0:	ebffe997 	bl	8024 <PUT32>
    d9c4:	e3a01000 	mov	r1, #0, 0
    d9c8:	e59f003c 	ldr	r0, [pc, #60]	; da0c <uart_init+0xc0>
    d9cc:	ebffe994 	bl	8024 <PUT32>
    d9d0:	e59f3038 	ldr	r3, [pc, #56]	; da10 <uart_init+0xc4>
    d9d4:	e1a01003 	mov	r1, r3
    d9d8:	e59f0034 	ldr	r0, [pc, #52]	; da14 <uart_init+0xc8>
    d9dc:	ebffe990 	bl	8024 <PUT32>
    d9e0:	e3a01003 	mov	r1, #3, 0
    d9e4:	e59f0014 	ldr	r0, [pc, #20]	; da00 <uart_init+0xb4>
    d9e8:	ebffe98d 	bl	8024 <PUT32>
    d9ec:	ebfffdb9 	bl	d0d8 <dev_barrier>
    d9f0:	e320f000 	nop	{0}
    d9f4:	e24bd004 	sub	sp, fp, #4, 0
    d9f8:	e8bd8800 	pop	{fp, pc}
    d9fc:	20215004 	.word	0x20215004
    da00:	20215060 	.word	0x20215060
    da04:	20215048 	.word	0x20215048
    da08:	2021504c 	.word	0x2021504c
    da0c:	20215044 	.word	0x20215044
    da10:	0000010e 	.word	0x0000010e
    da14:	20215068 	.word	0x20215068

0000da18 <uart_disable>:
    da18:	e92d4800 	push	{fp, lr}
    da1c:	e28db004 	add	fp, sp, #4, 0
    da20:	e24dd010 	sub	sp, sp, #16, 0
    da24:	ebfffdab 	bl	d0d8 <dev_barrier>
    da28:	e3a03000 	mov	r3, #0, 0
    da2c:	e50b3008 	str	r3, [fp, #-8]
    da30:	eb00007c 	bl	dc28 <uart_flush_tx>
    da34:	ea000006 	b	da54 <uart_disable+0x3c>
    da38:	ebfffda6 	bl	d0d8 <dev_barrier>
    da3c:	e59f007c 	ldr	r0, [pc, #124]	; dac0 <uart_disable+0xa8>
    da40:	ebffe979 	bl	802c <GET32>
    da44:	e1a03000 	mov	r3, r0
    da48:	e2033c02 	and	r3, r3, #512	; 0x200
    da4c:	e50b3008 	str	r3, [fp, #-8]
    da50:	ebfffda0 	bl	d0d8 <dev_barrier>
    da54:	e51b3008 	ldr	r3, [fp, #-8]
    da58:	e3530000 	cmp	r3, #0, 0
    da5c:	0afffff5 	beq	da38 <uart_disable+0x20>
    da60:	e3a01000 	mov	r1, #0, 0
    da64:	e59f0058 	ldr	r0, [pc, #88]	; dac4 <uart_disable+0xac>
    da68:	ebffe96d 	bl	8024 <PUT32>
    da6c:	e3a01006 	mov	r1, #6, 0
    da70:	e59f0050 	ldr	r0, [pc, #80]	; dac8 <uart_disable+0xb0>
    da74:	ebffe96a 	bl	8024 <PUT32>
    da78:	ebfffd96 	bl	d0d8 <dev_barrier>
    da7c:	e59f0048 	ldr	r0, [pc, #72]	; dacc <uart_disable+0xb4>
    da80:	ebffe969 	bl	802c <GET32>
    da84:	e50b000c 	str	r0, [fp, #-12]
    da88:	e3a03006 	mov	r3, #6, 0
    da8c:	e50b3010 	str	r3, [fp, #-16]
    da90:	e51b2010 	ldr	r2, [fp, #-16]
    da94:	e51b300c 	ldr	r3, [fp, #-12]
    da98:	e0233002 	eor	r3, r3, r2
    da9c:	e1e03003 	mvn	r3, r3
    daa0:	e50b300c 	str	r3, [fp, #-12]
    daa4:	e51b100c 	ldr	r1, [fp, #-12]
    daa8:	e59f001c 	ldr	r0, [pc, #28]	; dacc <uart_disable+0xb4>
    daac:	ebffe95c 	bl	8024 <PUT32>
    dab0:	ebfffd88 	bl	d0d8 <dev_barrier>
    dab4:	e320f000 	nop	{0}
    dab8:	e24bd004 	sub	sp, fp, #4, 0
    dabc:	e8bd8800 	pop	{fp, pc}
    dac0:	20215064 	.word	0x20215064
    dac4:	20215060 	.word	0x20215060
    dac8:	20215048 	.word	0x20215048
    dacc:	20215004 	.word	0x20215004

0000dad0 <uart_get8>:
    dad0:	e92d4800 	push	{fp, lr}
    dad4:	e28db004 	add	fp, sp, #4, 0
    dad8:	ebfffd7e 	bl	d0d8 <dev_barrier>
    dadc:	e320f000 	nop	{0}
    dae0:	eb00002c 	bl	db98 <uart_has_data>
    dae4:	e1a03000 	mov	r3, r0
    dae8:	e3530000 	cmp	r3, #0, 0
    daec:	0afffffb 	beq	dae0 <uart_get8+0x10>
    daf0:	ebfffd78 	bl	d0d8 <dev_barrier>
    daf4:	e59f000c 	ldr	r0, [pc, #12]	; db08 <uart_get8+0x38>
    daf8:	ebffe94b 	bl	802c <GET32>
    dafc:	e1a03000 	mov	r3, r0
    db00:	e1a00003 	mov	r0, r3
    db04:	e8bd8800 	pop	{fp, pc}
    db08:	20215040 	.word	0x20215040

0000db0c <uart_can_put8>:
    db0c:	e92d4800 	push	{fp, lr}
    db10:	e28db004 	add	fp, sp, #4, 0
    db14:	e24dd008 	sub	sp, sp, #8, 0
    db18:	ebfffd6e 	bl	d0d8 <dev_barrier>
    db1c:	e59f0018 	ldr	r0, [pc, #24]	; db3c <uart_can_put8+0x30>
    db20:	ebffe941 	bl	802c <GET32>
    db24:	e50b0008 	str	r0, [fp, #-8]
    db28:	e51b3008 	ldr	r3, [fp, #-8]
    db2c:	e2033002 	and	r3, r3, #2, 0
    db30:	e1a00003 	mov	r0, r3
    db34:	e24bd004 	sub	sp, fp, #4, 0
    db38:	e8bd8800 	pop	{fp, pc}
    db3c:	20215064 	.word	0x20215064

0000db40 <uart_put8>:
    db40:	e92d4800 	push	{fp, lr}
    db44:	e28db004 	add	fp, sp, #4, 0
    db48:	e24dd008 	sub	sp, sp, #8, 0
    db4c:	e1a03000 	mov	r3, r0
    db50:	e54b3005 	strb	r3, [fp, #-5]
    db54:	ebfffd5f 	bl	d0d8 <dev_barrier>
    db58:	e320f000 	nop	{0}
    db5c:	ebffffea 	bl	db0c <uart_can_put8>
    db60:	e1a03000 	mov	r3, r0
    db64:	e3530000 	cmp	r3, #0, 0
    db68:	0afffffb 	beq	db5c <uart_put8+0x1c>
    db6c:	ebfffd59 	bl	d0d8 <dev_barrier>
    db70:	e55b3005 	ldrb	r3, [fp, #-5]
    db74:	e1a01003 	mov	r1, r3
    db78:	e59f0014 	ldr	r0, [pc, #20]	; db94 <uart_put8+0x54>
    db7c:	ebffe928 	bl	8024 <PUT32>
    db80:	ebfffd54 	bl	d0d8 <dev_barrier>
    db84:	e3a03000 	mov	r3, #0, 0
    db88:	e1a00003 	mov	r0, r3
    db8c:	e24bd004 	sub	sp, fp, #4, 0
    db90:	e8bd8800 	pop	{fp, pc}
    db94:	20215040 	.word	0x20215040

0000db98 <uart_has_data>:
    db98:	e92d4800 	push	{fp, lr}
    db9c:	e28db004 	add	fp, sp, #4, 0
    dba0:	e24dd008 	sub	sp, sp, #8, 0
    dba4:	ebfffd4b 	bl	d0d8 <dev_barrier>
    dba8:	e59f001c 	ldr	r0, [pc, #28]	; dbcc <uart_has_data+0x34>
    dbac:	ebffe91e 	bl	802c <GET32>
    dbb0:	e50b0008 	str	r0, [fp, #-8]
    dbb4:	ebfffd47 	bl	d0d8 <dev_barrier>
    dbb8:	e51b3008 	ldr	r3, [fp, #-8]
    dbbc:	e2033001 	and	r3, r3, #1, 0
    dbc0:	e1a00003 	mov	r0, r3
    dbc4:	e24bd004 	sub	sp, fp, #4, 0
    dbc8:	e8bd8800 	pop	{fp, pc}
    dbcc:	20215054 	.word	0x20215054

0000dbd0 <uart_get8_async>:
    dbd0:	e92d4800 	push	{fp, lr}
    dbd4:	e28db004 	add	fp, sp, #4, 0
    dbd8:	ebffffee 	bl	db98 <uart_has_data>
    dbdc:	e1a03000 	mov	r3, r0
    dbe0:	e3530000 	cmp	r3, #0, 0
    dbe4:	1a000001 	bne	dbf0 <uart_get8_async+0x20>
    dbe8:	e3e03000 	mvn	r3, #0, 0
    dbec:	ea000001 	b	dbf8 <uart_get8_async+0x28>
    dbf0:	ebffffb6 	bl	dad0 <uart_get8>
    dbf4:	e1a03000 	mov	r3, r0
    dbf8:	e1a00003 	mov	r0, r3
    dbfc:	e8bd8800 	pop	{fp, pc}

0000dc00 <uart_tx_is_empty>:
    dc00:	e92d4800 	push	{fp, lr}
    dc04:	e28db004 	add	fp, sp, #4, 0
    dc08:	ebfffd32 	bl	d0d8 <dev_barrier>
    dc0c:	e59f0010 	ldr	r0, [pc, #16]	; dc24 <uart_tx_is_empty+0x24>
    dc10:	ebffe905 	bl	802c <GET32>
    dc14:	e1a03000 	mov	r3, r0
    dc18:	e2033c02 	and	r3, r3, #512	; 0x200
    dc1c:	e1a00003 	mov	r0, r3
    dc20:	e8bd8800 	pop	{fp, pc}
    dc24:	20215064 	.word	0x20215064

0000dc28 <uart_flush_tx>:
    dc28:	e92d4800 	push	{fp, lr}
    dc2c:	e28db004 	add	fp, sp, #4, 0
    dc30:	e320f000 	nop	{0}
    dc34:	ebfffff1 	bl	dc00 <uart_tx_is_empty>
    dc38:	e1a03000 	mov	r3, r0
    dc3c:	e3530000 	cmp	r3, #0, 0
    dc40:	0afffffb 	beq	dc34 <uart_flush_tx+0xc>
    dc44:	e320f000 	nop	{0}
    dc48:	e320f000 	nop	{0}
    dc4c:	e8bd8800 	pop	{fp, pc}

0000dc50 <kmalloc_heap_end>:
    dc50:	e59f3004 	ldr	r3, [pc, #4]	; dc5c <kmalloc_heap_end+0xc>
    dc54:	e5930000 	ldr	r0, [r3]
    dc58:	e12fff1e 	bx	lr
    dc5c:	0000f350 	.word	0x0000f350

0000dc60 <kmalloc_heap_start>:
    dc60:	e59f3004 	ldr	r3, [pc, #4]	; dc6c <kmalloc_heap_start+0xc>
    dc64:	e5930004 	ldr	r0, [r3, #4]
    dc68:	e12fff1e 	bx	lr
    dc6c:	0000f350 	.word	0x0000f350

0000dc70 <kmalloc_heap_ptr>:
    dc70:	e59f3004 	ldr	r3, [pc, #4]	; dc7c <kmalloc_heap_ptr+0xc>
    dc74:	e5930008 	ldr	r0, [r3, #8]
    dc78:	e12fff1e 	bx	lr
    dc7c:	0000f350 	.word	0x0000f350

0000dc80 <kmalloc_init_set_start>:
    dc80:	e52de004 	push	{lr}		; (str lr, [sp, #-4]!)
    dc84:	e24dd00c 	sub	sp, sp, #12, 0
    dc88:	e59f30a8 	ldr	r3, [pc, #168]	; dd38 <kmalloc_init_set_start+0xb8>
    dc8c:	e5933000 	ldr	r3, [r3]
    dc90:	e3530000 	cmp	r3, #0, 0
    dc94:	1a00000f 	bne	dcd8 <kmalloc_init_set_start+0x58>
    dc98:	e59f3098 	ldr	r3, [pc, #152]	; dd38 <kmalloc_init_set_start+0xb8>
    dc9c:	e3a02001 	mov	r2, #1, 0
    dca0:	e5832000 	str	r2, [r3]
    dca4:	e3510000 	cmp	r1, #0, 0
    dca8:	0a000010 	beq	dcf0 <kmalloc_init_set_start+0x70>
    dcac:	e59f3088 	ldr	r3, [pc, #136]	; dd3c <kmalloc_init_set_start+0xbc>
    dcb0:	e5933008 	ldr	r3, [r3, #8]
    dcb4:	e1530000 	cmp	r3, r0
    dcb8:	8a000014 	bhi	dd10 <kmalloc_init_set_start+0x90>
    dcbc:	e59f3078 	ldr	r3, [pc, #120]	; dd3c <kmalloc_init_set_start+0xbc>
    dcc0:	e5830008 	str	r0, [r3, #8]
    dcc4:	e5830004 	str	r0, [r3, #4]
    dcc8:	e0800001 	add	r0, r0, r1
    dccc:	e5830000 	str	r0, [r3]
    dcd0:	e28dd00c 	add	sp, sp, #12, 0
    dcd4:	e49df004 	pop	{pc}		; (ldr pc, [sp], #4)
    dcd8:	e3a03031 	mov	r3, #49, 0	; 0x31
    dcdc:	e59f205c 	ldr	r2, [pc, #92]	; dd40 <kmalloc_init_set_start+0xc0>
    dce0:	e59f105c 	ldr	r1, [pc, #92]	; dd44 <kmalloc_init_set_start+0xc4>
    dce4:	e59f005c 	ldr	r0, [pc, #92]	; dd48 <kmalloc_init_set_start+0xc8>
    dce8:	ebfffc69 	bl	ce94 <printk>
    dcec:	ebfffcbf 	bl	cff0 <clean_reboot>
    dcf0:	e59f3054 	ldr	r3, [pc, #84]	; dd4c <kmalloc_init_set_start+0xcc>
    dcf4:	e58d3000 	str	r3, [sp]
    dcf8:	e3a03036 	mov	r3, #54, 0	; 0x36
    dcfc:	e59f203c 	ldr	r2, [pc, #60]	; dd40 <kmalloc_init_set_start+0xc0>
    dd00:	e59f103c 	ldr	r1, [pc, #60]	; dd44 <kmalloc_init_set_start+0xc4>
    dd04:	e59f0044 	ldr	r0, [pc, #68]	; dd50 <kmalloc_init_set_start+0xd0>
    dd08:	ebfffc61 	bl	ce94 <printk>
    dd0c:	ebfffcb7 	bl	cff0 <clean_reboot>
    dd10:	e59f3024 	ldr	r3, [pc, #36]	; dd3c <kmalloc_init_set_start+0xbc>
    dd14:	e5933000 	ldr	r3, [r3]
    dd18:	e58d3004 	str	r3, [sp, #4]
    dd1c:	e58d0000 	str	r0, [sp]
    dd20:	e3a0303a 	mov	r3, #58, 0	; 0x3a
    dd24:	e59f2014 	ldr	r2, [pc, #20]	; dd40 <kmalloc_init_set_start+0xc0>
    dd28:	e59f1014 	ldr	r1, [pc, #20]	; dd44 <kmalloc_init_set_start+0xc4>
    dd2c:	e59f0020 	ldr	r0, [pc, #32]	; dd54 <kmalloc_init_set_start+0xd4>
    dd30:	ebfffc57 	bl	ce94 <printk>
    dd34:	ebfffcad 	bl	cff0 <clean_reboot>
    dd38:	0000f36c 	.word	0x0000f36c
    dd3c:	0000f350 	.word	0x0000f350
    dd40:	0000f2e4 	.word	0x0000f2e4
    dd44:	0000f14c 	.word	0x0000f14c
    dd48:	0000f158 	.word	0x0000f158
    dd4c:	0000f18c 	.word	0x0000f18c
    dd50:	0000ee58 	.word	0x0000ee58
    dd54:	0000f198 	.word	0x0000f198

0000dd58 <kmalloc_init>:
    dd58:	e92d4010 	push	{r4, lr}
    dd5c:	e59f303c 	ldr	r3, [pc, #60]	; dda0 <kmalloc_init+0x48>
    dd60:	e5933004 	ldr	r3, [r3, #4]
    dd64:	e3530000 	cmp	r3, #0, 0
    dd68:	1a000006 	bne	dd88 <kmalloc_init+0x30>
    dd6c:	e59f302c 	ldr	r3, [pc, #44]	; dda0 <kmalloc_init+0x48>
    dd70:	e3a02001 	mov	r2, #1, 0
    dd74:	e5832004 	str	r2, [r3, #4]
    dd78:	e3a01302 	mov	r1, #134217728	; 0x8000000
    dd7c:	e3a00601 	mov	r0, #1048576	; 0x100000
    dd80:	ebffffbe 	bl	dc80 <kmalloc_init_set_start>
    dd84:	e8bd8010 	pop	{r4, pc}
    dd88:	e3a03046 	mov	r3, #70, 0	; 0x46
    dd8c:	e59f2010 	ldr	r2, [pc, #16]	; dda4 <kmalloc_init+0x4c>
    dd90:	e59f1010 	ldr	r1, [pc, #16]	; dda8 <kmalloc_init+0x50>
    dd94:	e59f0010 	ldr	r0, [pc, #16]	; ddac <kmalloc_init+0x54>
    dd98:	ebfffc3d 	bl	ce94 <printk>
    dd9c:	ebfffc93 	bl	cff0 <clean_reboot>
    dda0:	0000f36c 	.word	0x0000f36c
    dda4:	0000f2fc 	.word	0x0000f2fc
    dda8:	0000f14c 	.word	0x0000f14c
    ddac:	0000f1dc 	.word	0x0000f1dc

0000ddb0 <kmalloc_notzero>:
    ddb0:	e52de004 	push	{lr}		; (str lr, [sp, #-4]!)
    ddb4:	e24dd00c 	sub	sp, sp, #12, 0
    ddb8:	e3500000 	cmp	r0, #0, 0
    ddbc:	0a00000a 	beq	ddec <kmalloc_notzero+0x3c>
    ddc0:	e2800007 	add	r0, r0, #7, 0
    ddc4:	e3c03007 	bic	r3, r0, #7, 0
    ddc8:	e59f2060 	ldr	r2, [pc, #96]	; de30 <kmalloc_notzero+0x80>
    ddcc:	e5920008 	ldr	r0, [r2, #8]
    ddd0:	e0801003 	add	r1, r0, r3
    ddd4:	e5821008 	str	r1, [r2, #8]
    ddd8:	e5922000 	ldr	r2, [r2]
    dddc:	e1510002 	cmp	r1, r2
    dde0:	8a000009 	bhi	de0c <kmalloc_notzero+0x5c>
    dde4:	e28dd00c 	add	sp, sp, #12, 0
    dde8:	e49df004 	pop	{pc}		; (ldr pc, [sp], #4)
    ddec:	e59f3040 	ldr	r3, [pc, #64]	; de34 <kmalloc_notzero+0x84>
    ddf0:	e58d3000 	str	r3, [sp]
    ddf4:	e3a03051 	mov	r3, #81, 0	; 0x51
    ddf8:	e59f2038 	ldr	r2, [pc, #56]	; de38 <kmalloc_notzero+0x88>
    ddfc:	e59f1038 	ldr	r1, [pc, #56]	; de3c <kmalloc_notzero+0x8c>
    de00:	e59f0038 	ldr	r0, [pc, #56]	; de40 <kmalloc_notzero+0x90>
    de04:	ebfffc22 	bl	ce94 <printk>
    de08:	ebfffc78 	bl	cff0 <clean_reboot>
    de0c:	e0411002 	sub	r1, r1, r2
    de10:	e58d1004 	str	r1, [sp, #4]
    de14:	e58d3000 	str	r3, [sp]
    de18:	e3a03057 	mov	r3, #87, 0	; 0x57
    de1c:	e59f2014 	ldr	r2, [pc, #20]	; de38 <kmalloc_notzero+0x88>
    de20:	e59f1014 	ldr	r1, [pc, #20]	; de3c <kmalloc_notzero+0x8c>
    de24:	e59f0018 	ldr	r0, [pc, #24]	; de44 <kmalloc_notzero+0x94>
    de28:	ebfffc19 	bl	ce94 <printk>
    de2c:	ebfffc6f 	bl	cff0 <clean_reboot>
    de30:	0000f350 	.word	0x0000f350
    de34:	0000ee90 	.word	0x0000ee90
    de38:	0000f30c 	.word	0x0000f30c
    de3c:	0000f14c 	.word	0x0000f14c
    de40:	0000ee58 	.word	0x0000ee58
    de44:	0000f20c 	.word	0x0000f20c

0000de48 <kmalloc>:
    de48:	e92d4030 	push	{r4, r5, lr}
    de4c:	e24dd00c 	sub	sp, sp, #12, 0
    de50:	e2504000 	subs	r4, r0, #0, 0
    de54:	0a000008 	beq	de7c <kmalloc+0x34>
    de58:	e1a00004 	mov	r0, r4
    de5c:	ebffffd3 	bl	ddb0 <kmalloc_notzero>
    de60:	e1a05000 	mov	r5, r0
    de64:	e1a02004 	mov	r2, r4
    de68:	e3a01000 	mov	r1, #0, 0
    de6c:	ebfffa5b 	bl	c7e0 <memset>
    de70:	e1a00005 	mov	r0, r5
    de74:	e28dd00c 	add	sp, sp, #12, 0
    de78:	e8bd8030 	pop	{r4, r5, pc}
    de7c:	e59f3018 	ldr	r3, [pc, #24]	; de9c <kmalloc+0x54>
    de80:	e58d3000 	str	r3, [sp]
    de84:	e3a0305e 	mov	r3, #94, 0	; 0x5e
    de88:	e59f2010 	ldr	r2, [pc, #16]	; dea0 <kmalloc+0x58>
    de8c:	e59f1010 	ldr	r1, [pc, #16]	; dea4 <kmalloc+0x5c>
    de90:	e59f0010 	ldr	r0, [pc, #16]	; dea8 <kmalloc+0x60>
    de94:	ebfffbfe 	bl	ce94 <printk>
    de98:	ebfffc54 	bl	cff0 <clean_reboot>
    de9c:	0000ee90 	.word	0x0000ee90
    dea0:	0000f31c 	.word	0x0000f31c
    dea4:	0000f14c 	.word	0x0000f14c
    dea8:	0000ee58 	.word	0x0000ee58

0000deac <kmalloc_aligned>:
    deac:	e52de004 	push	{lr}		; (str lr, [sp, #-4]!)
    deb0:	e24dd00c 	sub	sp, sp, #12, 0
    deb4:	e3500000 	cmp	r0, #0, 0
    deb8:	0a000014 	beq	df10 <kmalloc_aligned+0x64>
    debc:	e2613000 	rsb	r3, r1, #0, 0
    dec0:	e1d13003 	bics	r3, r1, r3
    dec4:	1a000019 	bne	df30 <kmalloc_aligned+0x84>
    dec8:	e3510008 	cmp	r1, #8, 0
    decc:	33a01008 	movcc	r1, #8, 0
    ded0:	e59f30c8 	ldr	r3, [pc, #200]	; dfa0 <kmalloc_aligned+0xf4>
    ded4:	e5932008 	ldr	r2, [r3, #8]
    ded8:	e2613000 	rsb	r3, r1, #0, 0
    dedc:	e1d1c003 	bics	ip, r1, r3
    dee0:	1a00001c 	bne	df58 <kmalloc_aligned+0xac>
    dee4:	e0822001 	add	r2, r2, r1
    dee8:	e2422001 	sub	r2, r2, #1, 0
    deec:	e0033002 	and	r3, r3, r2
    def0:	e2411001 	sub	r1, r1, #1, 0
    def4:	e1110003 	tst	r1, r3
    def8:	1a00001e 	bne	df78 <kmalloc_aligned+0xcc>
    defc:	e59f209c 	ldr	r2, [pc, #156]	; dfa0 <kmalloc_aligned+0xf4>
    df00:	e5823008 	str	r3, [r2, #8]
    df04:	ebffffcf 	bl	de48 <kmalloc>
    df08:	e28dd00c 	add	sp, sp, #12, 0
    df0c:	e49df004 	pop	{pc}		; (ldr pc, [sp], #4)
    df10:	e59f308c 	ldr	r3, [pc, #140]	; dfa4 <kmalloc_aligned+0xf8>
    df14:	e58d3000 	str	r3, [sp]
    df18:	e3a03069 	mov	r3, #105, 0	; 0x69
    df1c:	e59f2084 	ldr	r2, [pc, #132]	; dfa8 <kmalloc_aligned+0xfc>
    df20:	e59f1084 	ldr	r1, [pc, #132]	; dfac <kmalloc_aligned+0x100>
    df24:	e59f0084 	ldr	r0, [pc, #132]	; dfb0 <kmalloc_aligned+0x104>
    df28:	ebfffbd9 	bl	ce94 <printk>
    df2c:	ebfffc2f 	bl	cff0 <clean_reboot>
    df30:	e59f307c 	ldr	r3, [pc, #124]	; dfb4 <kmalloc_aligned+0x108>
    df34:	e58d3004 	str	r3, [sp, #4]
    df38:	e59f3078 	ldr	r3, [pc, #120]	; dfb8 <kmalloc_aligned+0x10c>
    df3c:	e58d3000 	str	r3, [sp]
    df40:	e3a0306a 	mov	r3, #106, 0	; 0x6a
    df44:	e59f205c 	ldr	r2, [pc, #92]	; dfa8 <kmalloc_aligned+0xfc>
    df48:	e59f105c 	ldr	r1, [pc, #92]	; dfac <kmalloc_aligned+0x100>
    df4c:	e59f0068 	ldr	r0, [pc, #104]	; dfbc <kmalloc_aligned+0x110>
    df50:	ebfffbcf 	bl	ce94 <printk>
    df54:	ebfffc25 	bl	cff0 <clean_reboot>
    df58:	e59f3060 	ldr	r3, [pc, #96]	; dfc0 <kmalloc_aligned+0x114>
    df5c:	e58d3000 	str	r3, [sp]
    df60:	e3a03011 	mov	r3, #17, 0
    df64:	e59f2058 	ldr	r2, [pc, #88]	; dfc4 <kmalloc_aligned+0x118>
    df68:	e59f103c 	ldr	r1, [pc, #60]	; dfac <kmalloc_aligned+0x100>
    df6c:	e59f003c 	ldr	r0, [pc, #60]	; dfb0 <kmalloc_aligned+0x104>
    df70:	ebfffbc7 	bl	ce94 <printk>
    df74:	ebfffc1d 	bl	cff0 <clean_reboot>
    df78:	e59f3048 	ldr	r3, [pc, #72]	; dfc8 <kmalloc_aligned+0x11c>
    df7c:	e58d3004 	str	r3, [sp, #4]
    df80:	e59f3044 	ldr	r3, [pc, #68]	; dfcc <kmalloc_aligned+0x120>
    df84:	e58d3000 	str	r3, [sp]
    df88:	e3a03072 	mov	r3, #114, 0	; 0x72
    df8c:	e59f2014 	ldr	r2, [pc, #20]	; dfa8 <kmalloc_aligned+0xfc>
    df90:	e59f1014 	ldr	r1, [pc, #20]	; dfac <kmalloc_aligned+0x100>
    df94:	e59f0020 	ldr	r0, [pc, #32]	; dfbc <kmalloc_aligned+0x110>
    df98:	ebfffbbd 	bl	ce94 <printk>
    df9c:	ebfffc13 	bl	cff0 <clean_reboot>
    dfa0:	0000f350 	.word	0x0000f350
    dfa4:	0000ee90 	.word	0x0000ee90
    dfa8:	0000f324 	.word	0x0000f324
    dfac:	0000f14c 	.word	0x0000f14c
    dfb0:	0000ee58 	.word	0x0000ee58
    dfb4:	0000f254 	.word	0x0000f254
    dfb8:	0000f26c 	.word	0x0000f26c
    dfbc:	0000ef10 	.word	0x0000ef10
    dfc0:	0000f280 	.word	0x0000f280
    dfc4:	0000f334 	.word	0x0000f334
    dfc8:	0000f28c 	.word	0x0000f28c
    dfcc:	0000f298 	.word	0x0000f298

0000dfd0 <kfree_all>:
    dfd0:	e59f3008 	ldr	r3, [pc, #8]	; dfe0 <kfree_all+0x10>
    dfd4:	e5932004 	ldr	r2, [r3, #4]
    dfd8:	e5832008 	str	r2, [r3, #8]
    dfdc:	e12fff1e 	bx	lr
    dfe0:	0000f350 	.word	0x0000f350

0000dfe4 <kfree_pop>:
    dfe4:	e59f3048 	ldr	r3, [pc, #72]	; e034 <kfree_pop+0x50>
    dfe8:	e5933004 	ldr	r3, [r3, #4]
    dfec:	e1530000 	cmp	r3, r0
    dff0:	8a000006 	bhi	e010 <kfree_pop+0x2c>
    dff4:	e59f3038 	ldr	r3, [pc, #56]	; e034 <kfree_pop+0x50>
    dff8:	e5933000 	ldr	r3, [r3]
    dffc:	e1530000 	cmp	r3, r0
    e000:	3a000002 	bcc	e010 <kfree_pop+0x2c>
    e004:	e59f3028 	ldr	r3, [pc, #40]	; e034 <kfree_pop+0x50>
    e008:	e5830008 	str	r0, [r3, #8]
    e00c:	e12fff1e 	bx	lr
    e010:	e52de004 	push	{lr}		; (str lr, [sp, #-4]!)
    e014:	e24dd00c 	sub	sp, sp, #12, 0
    e018:	e58d0000 	str	r0, [sp]
    e01c:	e3a03081 	mov	r3, #129, 0	; 0x81
    e020:	e59f2010 	ldr	r2, [pc, #16]	; e038 <kfree_pop+0x54>
    e024:	e59f1010 	ldr	r1, [pc, #16]	; e03c <kfree_pop+0x58>
    e028:	e59f0010 	ldr	r0, [pc, #16]	; e040 <kfree_pop+0x5c>
    e02c:	ebfffb98 	bl	ce94 <printk>
    e030:	ebfffbee 	bl	cff0 <clean_reboot>
    e034:	0000f350 	.word	0x0000f350
    e038:	0000f33c 	.word	0x0000f33c
    e03c:	0000f14c 	.word	0x0000f14c
    e040:	0000f2b4 	.word	0x0000f2b4

0000e044 <putk>:
    e044:	e92d4800 	push	{fp, lr}
    e048:	e28db004 	add	fp, sp, #4, 0
    e04c:	e24dd008 	sub	sp, sp, #8, 0
    e050:	e50b0008 	str	r0, [fp, #-8]
    e054:	ea000008 	b	e07c <putk+0x38>
    e058:	e59f303c 	ldr	r3, [pc, #60]	; e09c <putk+0x58>
    e05c:	e5933000 	ldr	r3, [r3]
    e060:	e51b2008 	ldr	r2, [fp, #-8]
    e064:	e5d22000 	ldrb	r2, [r2]
    e068:	e1a00002 	mov	r0, r2
    e06c:	e12fff33 	blx	r3
    e070:	e51b3008 	ldr	r3, [fp, #-8]
    e074:	e2833001 	add	r3, r3, #1, 0
    e078:	e50b3008 	str	r3, [fp, #-8]
    e07c:	e51b3008 	ldr	r3, [fp, #-8]
    e080:	e5d33000 	ldrb	r3, [r3]
    e084:	e3530000 	cmp	r3, #0, 0
    e088:	1afffff2 	bne	e058 <putk+0x14>
    e08c:	e3a03001 	mov	r3, #1, 0
    e090:	e1a00003 	mov	r0, r3
    e094:	e24bd004 	sub	sp, fp, #4, 0
    e098:	e8bd8800 	pop	{fp, pc}
    e09c:	0000f348 	.word	0x0000f348

0000e0a0 <reboot_callout>:
    e0a0:	e52db004 	push	{fp}		; (str fp, [sp, #-4]!)
    e0a4:	e28db000 	add	fp, sp, #0, 0
    e0a8:	e320f000 	nop	{0}
    e0ac:	e28bd000 	add	sp, fp, #0, 0
    e0b0:	e49db004 	pop	{fp}		; (ldr fp, [sp], #4)
    e0b4:	e12fff1e 	bx	lr
